	.file	"test_mxfp4_byte_ops.hip"
	.text
	.globl	_Z33__device_stub__benchmark_baselinePjPKji # -- Begin function _Z33__device_stub__benchmark_baselinePjPKji
	.p2align	4
	.type	_Z33__device_stub__benchmark_baselinePjPKji,@function
_Z33__device_stub__benchmark_baselinePjPKji: # @_Z33__device_stub__benchmark_baselinePjPKji
	.cfi_startproc
# %bb.0:
	subq	$104, %rsp
	.cfi_def_cfa_offset 112
	movq	%rdi, 72(%rsp)
	movq	%rsi, 64(%rsp)
	movl	%edx, 12(%rsp)
	leaq	72(%rsp), %rax
	movq	%rax, 80(%rsp)
	leaq	64(%rsp), %rax
	movq	%rax, 88(%rsp)
	leaq	12(%rsp), %rax
	movq	%rax, 96(%rsp)
	leaq	48(%rsp), %rdi
	leaq	32(%rsp), %rsi
	leaq	24(%rsp), %rdx
	leaq	16(%rsp), %rcx
	callq	__hipPopCallConfiguration
	movq	48(%rsp), %rsi
	movl	56(%rsp), %edx
	movq	32(%rsp), %rcx
	movl	40(%rsp), %r8d
	leaq	80(%rsp), %r9
	movl	$_Z18benchmark_baselinePjPKji, %edi
	pushq	16(%rsp)
	.cfi_adjust_cfa_offset 8
	pushq	32(%rsp)
	.cfi_adjust_cfa_offset 8
	callq	hipLaunchKernel
	addq	$120, %rsp
	.cfi_adjust_cfa_offset -120
	retq
.Lfunc_end0:
	.size	_Z33__device_stub__benchmark_baselinePjPKji, .Lfunc_end0-_Z33__device_stub__benchmark_baselinePjPKji
	.cfi_endproc
                                        # -- End function
	.globl	_Z30__device_stub__benchmark_opt1aPjPKji # -- Begin function _Z30__device_stub__benchmark_opt1aPjPKji
	.p2align	4
	.type	_Z30__device_stub__benchmark_opt1aPjPKji,@function
_Z30__device_stub__benchmark_opt1aPjPKji: # @_Z30__device_stub__benchmark_opt1aPjPKji
	.cfi_startproc
# %bb.0:
	subq	$104, %rsp
	.cfi_def_cfa_offset 112
	movq	%rdi, 72(%rsp)
	movq	%rsi, 64(%rsp)
	movl	%edx, 12(%rsp)
	leaq	72(%rsp), %rax
	movq	%rax, 80(%rsp)
	leaq	64(%rsp), %rax
	movq	%rax, 88(%rsp)
	leaq	12(%rsp), %rax
	movq	%rax, 96(%rsp)
	leaq	48(%rsp), %rdi
	leaq	32(%rsp), %rsi
	leaq	24(%rsp), %rdx
	leaq	16(%rsp), %rcx
	callq	__hipPopCallConfiguration
	movq	48(%rsp), %rsi
	movl	56(%rsp), %edx
	movq	32(%rsp), %rcx
	movl	40(%rsp), %r8d
	leaq	80(%rsp), %r9
	movl	$_Z15benchmark_opt1aPjPKji, %edi
	pushq	16(%rsp)
	.cfi_adjust_cfa_offset 8
	pushq	32(%rsp)
	.cfi_adjust_cfa_offset 8
	callq	hipLaunchKernel
	addq	$120, %rsp
	.cfi_adjust_cfa_offset -120
	retq
.Lfunc_end1:
	.size	_Z30__device_stub__benchmark_opt1aPjPKji, .Lfunc_end1-_Z30__device_stub__benchmark_opt1aPjPKji
	.cfi_endproc
                                        # -- End function
	.globl	_Z30__device_stub__benchmark_opt1bPjPKji # -- Begin function _Z30__device_stub__benchmark_opt1bPjPKji
	.p2align	4
	.type	_Z30__device_stub__benchmark_opt1bPjPKji,@function
_Z30__device_stub__benchmark_opt1bPjPKji: # @_Z30__device_stub__benchmark_opt1bPjPKji
	.cfi_startproc
# %bb.0:
	subq	$104, %rsp
	.cfi_def_cfa_offset 112
	movq	%rdi, 72(%rsp)
	movq	%rsi, 64(%rsp)
	movl	%edx, 12(%rsp)
	leaq	72(%rsp), %rax
	movq	%rax, 80(%rsp)
	leaq	64(%rsp), %rax
	movq	%rax, 88(%rsp)
	leaq	12(%rsp), %rax
	movq	%rax, 96(%rsp)
	leaq	48(%rsp), %rdi
	leaq	32(%rsp), %rsi
	leaq	24(%rsp), %rdx
	leaq	16(%rsp), %rcx
	callq	__hipPopCallConfiguration
	movq	48(%rsp), %rsi
	movl	56(%rsp), %edx
	movq	32(%rsp), %rcx
	movl	40(%rsp), %r8d
	leaq	80(%rsp), %r9
	movl	$_Z15benchmark_opt1bPjPKji, %edi
	pushq	16(%rsp)
	.cfi_adjust_cfa_offset 8
	pushq	32(%rsp)
	.cfi_adjust_cfa_offset 8
	callq	hipLaunchKernel
	addq	$120, %rsp
	.cfi_adjust_cfa_offset -120
	retq
.Lfunc_end2:
	.size	_Z30__device_stub__benchmark_opt1bPjPKji, .Lfunc_end2-_Z30__device_stub__benchmark_opt1bPjPKji
	.cfi_endproc
                                        # -- End function
	.globl	_Z29__device_stub__benchmark_opt2PjPKji # -- Begin function _Z29__device_stub__benchmark_opt2PjPKji
	.p2align	4
	.type	_Z29__device_stub__benchmark_opt2PjPKji,@function
_Z29__device_stub__benchmark_opt2PjPKji: # @_Z29__device_stub__benchmark_opt2PjPKji
	.cfi_startproc
# %bb.0:
	subq	$104, %rsp
	.cfi_def_cfa_offset 112
	movq	%rdi, 72(%rsp)
	movq	%rsi, 64(%rsp)
	movl	%edx, 12(%rsp)
	leaq	72(%rsp), %rax
	movq	%rax, 80(%rsp)
	leaq	64(%rsp), %rax
	movq	%rax, 88(%rsp)
	leaq	12(%rsp), %rax
	movq	%rax, 96(%rsp)
	leaq	48(%rsp), %rdi
	leaq	32(%rsp), %rsi
	leaq	24(%rsp), %rdx
	leaq	16(%rsp), %rcx
	callq	__hipPopCallConfiguration
	movq	48(%rsp), %rsi
	movl	56(%rsp), %edx
	movq	32(%rsp), %rcx
	movl	40(%rsp), %r8d
	leaq	80(%rsp), %r9
	movl	$_Z14benchmark_opt2PjPKji, %edi
	pushq	16(%rsp)
	.cfi_adjust_cfa_offset 8
	pushq	32(%rsp)
	.cfi_adjust_cfa_offset 8
	callq	hipLaunchKernel
	addq	$120, %rsp
	.cfi_adjust_cfa_offset -120
	retq
.Lfunc_end3:
	.size	_Z29__device_stub__benchmark_opt2PjPKji, .Lfunc_end3-_Z29__device_stub__benchmark_opt2PjPKji
	.cfi_endproc
                                        # -- End function
	.globl	_Z29__device_stub__benchmark_opt6PjPKji # -- Begin function _Z29__device_stub__benchmark_opt6PjPKji
	.p2align	4
	.type	_Z29__device_stub__benchmark_opt6PjPKji,@function
_Z29__device_stub__benchmark_opt6PjPKji: # @_Z29__device_stub__benchmark_opt6PjPKji
	.cfi_startproc
# %bb.0:
	subq	$104, %rsp
	.cfi_def_cfa_offset 112
	movq	%rdi, 72(%rsp)
	movq	%rsi, 64(%rsp)
	movl	%edx, 12(%rsp)
	leaq	72(%rsp), %rax
	movq	%rax, 80(%rsp)
	leaq	64(%rsp), %rax
	movq	%rax, 88(%rsp)
	leaq	12(%rsp), %rax
	movq	%rax, 96(%rsp)
	leaq	48(%rsp), %rdi
	leaq	32(%rsp), %rsi
	leaq	24(%rsp), %rdx
	leaq	16(%rsp), %rcx
	callq	__hipPopCallConfiguration
	movq	48(%rsp), %rsi
	movl	56(%rsp), %edx
	movq	32(%rsp), %rcx
	movl	40(%rsp), %r8d
	leaq	80(%rsp), %r9
	movl	$_Z14benchmark_opt6PjPKji, %edi
	pushq	16(%rsp)
	.cfi_adjust_cfa_offset 8
	pushq	32(%rsp)
	.cfi_adjust_cfa_offset 8
	callq	hipLaunchKernel
	addq	$120, %rsp
	.cfi_adjust_cfa_offset -120
	retq
.Lfunc_end4:
	.size	_Z29__device_stub__benchmark_opt6PjPKji, .Lfunc_end4-_Z29__device_stub__benchmark_opt6PjPKji
	.cfi_endproc
                                        # -- End function
	.globl	_Z33__device_stub__verify_correctnessPjPi # -- Begin function _Z33__device_stub__verify_correctnessPjPi
	.p2align	4
	.type	_Z33__device_stub__verify_correctnessPjPi,@function
_Z33__device_stub__verify_correctnessPjPi: # @_Z33__device_stub__verify_correctnessPjPi
	.cfi_startproc
# %bb.0:
	subq	$88, %rsp
	.cfi_def_cfa_offset 96
	movq	%rdi, 56(%rsp)
	movq	%rsi, 48(%rsp)
	leaq	56(%rsp), %rax
	movq	%rax, 64(%rsp)
	leaq	48(%rsp), %rax
	movq	%rax, 72(%rsp)
	leaq	32(%rsp), %rdi
	leaq	16(%rsp), %rsi
	leaq	8(%rsp), %rdx
	movq	%rsp, %rcx
	callq	__hipPopCallConfiguration
	movq	32(%rsp), %rsi
	movl	40(%rsp), %edx
	movq	16(%rsp), %rcx
	movl	24(%rsp), %r8d
	leaq	64(%rsp), %r9
	movl	$_Z18verify_correctnessPjPi, %edi
	pushq	(%rsp)
	.cfi_adjust_cfa_offset 8
	pushq	16(%rsp)
	.cfi_adjust_cfa_offset 8
	callq	hipLaunchKernel
	addq	$104, %rsp
	.cfi_adjust_cfa_offset -104
	retq
.Lfunc_end5:
	.size	_Z33__device_stub__verify_correctnessPjPi, .Lfunc_end5-_Z33__device_stub__verify_correctnessPjPi
	.cfi_endproc
                                        # -- End function
	.globl	main                            # -- Begin function main
	.p2align	4
	.type	main,@function
main:                                   # @main
	.cfi_startproc
# %bb.0:
	pushq	%r15
	.cfi_def_cfa_offset 16
	pushq	%r14
	.cfi_def_cfa_offset 24
	pushq	%r12
	.cfi_def_cfa_offset 32
	pushq	%rbx
	.cfi_def_cfa_offset 40
	subq	$136, %rsp
	.cfi_def_cfa_offset 176
	.cfi_offset %rbx, -40
	.cfi_offset %r12, -32
	.cfi_offset %r14, -24
	.cfi_offset %r15, -16
	movl	$.Lstr, %edi
	callq	puts@PLT
	movl	$.Lstr.1, %edi
	callq	puts@PLT
	movl	$.Lstr.2, %edi
	callq	puts@PLT
	movl	$.Lstr.3, %edi
	callq	puts@PLT
	leaq	88(%rsp), %rdi
	movl	$1572864, %esi                  # imm = 0x180000
	callq	hipMalloc
	leaq	8(%rsp), %rdi
	movl	$16, %esi
	callq	hipMalloc
	movq	8(%rsp), %rdi
	movl	$16, %edx
	xorl	%esi, %esi
	callq	hipMemset
	movabsq	$4294967552, %rdi               # imm = 0x100000100
	movl	$1, %esi
	movq	%rdi, %rdx
	movl	$1, %ecx
	xorl	%r8d, %r8d
	xorl	%r9d, %r9d
	callq	__hipPushCallConfiguration
	testl	%eax, %eax
	jne	.LBB6_2
# %bb.1:
	movq	88(%rsp), %rax
	movq	8(%rsp), %rcx
	movq	%rax, 80(%rsp)
	movq	%rcx, 72(%rsp)
	leaq	80(%rsp), %rax
	movq	%rax, 96(%rsp)
	leaq	72(%rsp), %rax
	movq	%rax, 104(%rsp)
	leaq	16(%rsp), %rdi
	leaq	56(%rsp), %rsi
	leaq	48(%rsp), %rdx
	leaq	40(%rsp), %rcx
	callq	__hipPopCallConfiguration
	movq	16(%rsp), %rsi
	movl	24(%rsp), %edx
	movq	56(%rsp), %rcx
	movl	64(%rsp), %r8d
	leaq	96(%rsp), %r9
	movl	$_Z18verify_correctnessPjPi, %edi
	pushq	40(%rsp)
	.cfi_adjust_cfa_offset 8
	pushq	56(%rsp)
	.cfi_adjust_cfa_offset 8
	callq	hipLaunchKernel
	addq	$16, %rsp
	.cfi_adjust_cfa_offset -16
.LBB6_2:
	callq	hipDeviceSynchronize
	movq	8(%rsp), %rsi
	leaq	16(%rsp), %rdi
	movl	$16, %edx
	movl	$2, %ecx
	callq	hipMemcpy
	movl	16(%rsp), %esi
	xorl	%r12d, %r12d
	movl	$.L.str.4, %edi
	xorl	%eax, %eax
	callq	printf
	movl	24(%rsp), %esi
	movl	$.L.str.5, %edi
	xorl	%eax, %eax
	callq	printf
	cmpl	$0, 24(%rsp)
	movl	$.Lstr.5, %eax
	movl	$.Lstr.4, %edi
	cmovgq	%rax, %rdi
	cmpl	$0, 16(%rsp)
	cmovgq	%rax, %rdi
	callq	puts@PLT
	movq	88(%rsp), %rdi
	callq	hipFree
	movq	8(%rsp), %rdi
	callq	hipFree
	movl	$.Lstr.6, %edi
	callq	puts@PLT
	movl	$.Lstr.7, %edi
	callq	puts@PLT
	movl	$1048576, 72(%rsp)              # imm = 0x100000
	leaq	56(%rsp), %rbx
	movl	$4194304, %esi                  # imm = 0x400000
	movq	%rbx, %rdi
	callq	hipMalloc
	leaq	80(%rsp), %r14
	movl	$8388608, %esi                  # imm = 0x800000
	movq	%r14, %rdi
	callq	hipMalloc
	movl	$4194304, %edi                  # imm = 0x400000
	callq	_Znam
	movq	%rax, %r15
	.p2align	4
.LBB6_3:                                # =>This Inner Loop Header: Depth=1
	callq	rand
	movl	%eax, (%r15,%r12,4)
	incq	%r12
	cmpq	$1048576, %r12                  # imm = 0x100000
	jne	.LBB6_3
# %bb.4:
	movq	56(%rsp), %rdi
	movl	$4194304, %edx                  # imm = 0x400000
	movq	%r15, %rsi
	movl	$1, %ecx
	callq	hipMemcpy
	movq	%r15, %rdi
	callq	_ZdaPv
	movl	$256, 48(%rsp)                  # imm = 0x100
	movl	$4096, 40(%rsp)                 # imm = 0x1000
	leaq	40(%rsp), %rax
	movq	%rax, 96(%rsp)
	leaq	48(%rsp), %rax
	movq	%rax, 104(%rsp)
	movq	%r14, 112(%rsp)
	movq	%rbx, 120(%rsp)
	leaq	72(%rsp), %rax
	movq	%rax, 128(%rsp)
	leaq	96(%rsp), %rbx
	movl	$.L.str.10, %esi
	movl	$_Z33__device_stub__benchmark_baselinePjPKji, %edx
	movq	%rbx, %rdi
	callq	_ZZ4mainENKUlPKcT_E_clIPFvPjPKjiEEEDaS0_S1_
	movl	$.L.str.11, %esi
	movl	$_Z30__device_stub__benchmark_opt1aPjPKji, %edx
	movq	%rbx, %rdi
	callq	_ZZ4mainENKUlPKcT_E_clIPFvPjPKjiEEEDaS0_S1_
	movl	$.L.str.12, %esi
	movl	$_Z30__device_stub__benchmark_opt1bPjPKji, %edx
	movq	%rbx, %rdi
	callq	_ZZ4mainENKUlPKcT_E_clIPFvPjPKjiEEEDaS0_S1_
	movl	$.L.str.13, %esi
	movl	$_Z29__device_stub__benchmark_opt2PjPKji, %edx
	movq	%rbx, %rdi
	callq	_ZZ4mainENKUlPKcT_E_clIPFvPjPKjiEEEDaS0_S1_
	movl	$.L.str.14, %esi
	movl	$_Z29__device_stub__benchmark_opt6PjPKji, %edx
	movq	%rbx, %rdi
	callq	_ZZ4mainENKUlPKcT_E_clIPFvPjPKjiEEEDaS0_S1_
	movq	56(%rsp), %rdi
	callq	hipFree
	movq	80(%rsp), %rdi
	callq	hipFree
	movl	$.Lstr.8, %edi
	callq	puts@PLT
	xorl	%eax, %eax
	addq	$136, %rsp
	.cfi_def_cfa_offset 40
	popq	%rbx
	.cfi_def_cfa_offset 32
	popq	%r12
	.cfi_def_cfa_offset 24
	popq	%r14
	.cfi_def_cfa_offset 16
	popq	%r15
	.cfi_def_cfa_offset 8
	retq
.Lfunc_end6:
	.size	main, .Lfunc_end6-main
	.cfi_endproc
                                        # -- End function
	.section	.rodata.cst8,"aM",@progbits,8
	.p2align	3, 0x0                          # -- Begin function _ZZ4mainENKUlPKcT_E_clIPFvPjPKjiEEEDaS0_S1_
.LCPI7_0:
	.quad	0x412e848000000000              # double 1.0E+6
.LCPI7_1:
	.quad	0x4034000000000000              # double 20
.LCPI7_2:
	.quad	0x408f400000000000              # double 1000
.LCPI7_3:
	.quad	0x4199000000000000              # double 104857600
.LCPI7_4:
	.quad	0x41cdcd6500000000              # double 1.0E+9
	.text
	.p2align	4
	.type	_ZZ4mainENKUlPKcT_E_clIPFvPjPKjiEEEDaS0_S1_,@function
_ZZ4mainENKUlPKcT_E_clIPFvPjPKjiEEEDaS0_S1_: # @_ZZ4mainENKUlPKcT_E_clIPFvPjPKjiEEEDaS0_S1_
	.cfi_startproc
# %bb.0:
	pushq	%rbp
	.cfi_def_cfa_offset 16
	pushq	%r15
	.cfi_def_cfa_offset 24
	pushq	%r14
	.cfi_def_cfa_offset 32
	pushq	%r13
	.cfi_def_cfa_offset 40
	pushq	%r12
	.cfi_def_cfa_offset 48
	pushq	%rbx
	.cfi_def_cfa_offset 56
	pushq	%rax
	.cfi_def_cfa_offset 64
	.cfi_offset %rbx, -56
	.cfi_offset %r12, -48
	.cfi_offset %r13, -40
	.cfi_offset %r14, -32
	.cfi_offset %r15, -24
	.cfi_offset %rbp, -16
	movq	%rdx, %r14
	movq	%rsi, %rbx
	movq	%rdi, %r15
	movabsq	$4294967296, %r13               # imm = 0x100000000
	movq	(%rdi), %rax
	movq	8(%rdi), %rcx
	movl	(%rax), %edi
	movl	(%rcx), %edx
	orq	%r13, %rdi
	orq	%r13, %rdx
	movl	$1, %esi
	movl	$1, %ecx
	xorl	%r8d, %r8d
	xorl	%r9d, %r9d
	callq	__hipPushCallConfiguration
	testl	%eax, %eax
	jne	.LBB7_2
# %bb.1:
	movq	16(%r15), %rax
	movq	24(%r15), %rcx
	movq	(%rax), %rdi
	movq	(%rcx), %rsi
	movl	$1048576, %edx                  # imm = 0x100000
	callq	*%r14
.LBB7_2:
	movq	(%r15), %rax
	movq	8(%r15), %rcx
	movl	(%rax), %edi
	movl	(%rcx), %edx
	orq	%r13, %rdi
	orq	%r13, %rdx
	movl	$1, %esi
	movl	$1, %ecx
	xorl	%r8d, %r8d
	xorl	%r9d, %r9d
	callq	__hipPushCallConfiguration
	testl	%eax, %eax
	jne	.LBB7_4
# %bb.3:
	movq	16(%r15), %rax
	movq	24(%r15), %rcx
	movq	(%rax), %rdi
	movq	(%rcx), %rsi
	movl	$1048576, %edx                  # imm = 0x100000
	callq	*%r14
.LBB7_4:
	movq	(%r15), %rax
	movq	8(%r15), %rcx
	movl	(%rax), %edi
	movl	(%rcx), %edx
	orq	%r13, %rdi
	orq	%r13, %rdx
	movl	$1, %esi
	movl	$1, %ecx
	xorl	%r8d, %r8d
	xorl	%r9d, %r9d
	callq	__hipPushCallConfiguration
	testl	%eax, %eax
	jne	.LBB7_6
# %bb.5:
	movq	16(%r15), %rax
	movq	24(%r15), %rcx
	movq	(%rax), %rdi
	movq	(%rcx), %rsi
	movl	$1048576, %edx                  # imm = 0x100000
	callq	*%r14
.LBB7_6:
	movq	(%r15), %rax
	movq	8(%r15), %rcx
	movl	(%rax), %edi
	movl	(%rcx), %edx
	orq	%r13, %rdi
	orq	%r13, %rdx
	movl	$1, %esi
	movl	$1, %ecx
	xorl	%r8d, %r8d
	xorl	%r9d, %r9d
	callq	__hipPushCallConfiguration
	testl	%eax, %eax
	jne	.LBB7_8
# %bb.7:
	movq	16(%r15), %rax
	movq	24(%r15), %rcx
	movq	(%rax), %rdi
	movq	(%rcx), %rsi
	movl	$1048576, %edx                  # imm = 0x100000
	callq	*%r14
.LBB7_8:
	movq	(%r15), %rax
	movq	8(%r15), %rcx
	movl	(%rax), %edi
	movl	(%rcx), %edx
	orq	%r13, %rdi
	orq	%r13, %rdx
	movl	$1, %esi
	movl	$1, %ecx
	xorl	%r8d, %r8d
	xorl	%r9d, %r9d
	callq	__hipPushCallConfiguration
	testl	%eax, %eax
	jne	.LBB7_10
# %bb.9:
	movq	16(%r15), %rax
	movq	24(%r15), %rcx
	movq	(%rax), %rdi
	movq	(%rcx), %rsi
	movl	$1048576, %edx                  # imm = 0x100000
	callq	*%r14
.LBB7_10:
	callq	hipDeviceSynchronize
	movl	$20, %ebp
	callq	_ZNSt6chrono3_V212system_clock3nowEv
	movq	%rax, %r12
	jmp	.LBB7_11
	.p2align	4
.LBB7_13:                               #   in Loop: Header=BB7_11 Depth=1
	decl	%ebp
	je	.LBB7_14
.LBB7_11:                               # =>This Inner Loop Header: Depth=1
	movq	(%r15), %rax
	movq	8(%r15), %rcx
	movl	(%rax), %edi
	movl	(%rcx), %edx
	orq	%r13, %rdi
	orq	%r13, %rdx
	movl	$1, %esi
	movl	$1, %ecx
	xorl	%r8d, %r8d
	xorl	%r9d, %r9d
	callq	__hipPushCallConfiguration
	testl	%eax, %eax
	jne	.LBB7_13
# %bb.12:                               #   in Loop: Header=BB7_11 Depth=1
	movq	16(%r15), %rax
	movq	24(%r15), %rcx
	movq	(%rax), %rdi
	movq	(%rcx), %rsi
	movl	$1048576, %edx                  # imm = 0x100000
	callq	*%r14
	jmp	.LBB7_13
.LBB7_14:
	callq	hipDeviceSynchronize
	callq	_ZNSt6chrono3_V212system_clock3nowEv
	subq	%r12, %rax
	cvtsi2sd	%rax, %xmm0
	divsd	.LCPI7_0(%rip), %xmm0
	divsd	.LCPI7_1(%rip), %xmm0
	movapd	%xmm0, %xmm2
	divsd	.LCPI7_2(%rip), %xmm2
	movsd	.LCPI7_3(%rip), %xmm1           # xmm1 = [1.048576E+8,0.0E+0]
	divsd	%xmm2, %xmm1
	divsd	.LCPI7_4(%rip), %xmm1
	movl	$.L.str.16, %edi
	movq	%rbx, %rsi
	movb	$2, %al
	addq	$8, %rsp
	.cfi_def_cfa_offset 56
	popq	%rbx
	.cfi_def_cfa_offset 48
	popq	%r12
	.cfi_def_cfa_offset 40
	popq	%r13
	.cfi_def_cfa_offset 32
	popq	%r14
	.cfi_def_cfa_offset 24
	popq	%r15
	.cfi_def_cfa_offset 16
	popq	%rbp
	.cfi_def_cfa_offset 8
	jmp	printf                          # TAILCALL
.Lfunc_end7:
	.size	_ZZ4mainENKUlPKcT_E_clIPFvPjPKjiEEEDaS0_S1_, .Lfunc_end7-_ZZ4mainENKUlPKcT_E_clIPFvPjPKjiEEEDaS0_S1_
	.cfi_endproc
                                        # -- End function
	.p2align	4                               # -- Begin function __hip_module_ctor
	.type	__hip_module_ctor,@function
__hip_module_ctor:                      # @__hip_module_ctor
	.cfi_startproc
# %bb.0:
	pushq	%rbx
	.cfi_def_cfa_offset 16
	subq	$32, %rsp
	.cfi_def_cfa_offset 48
	.cfi_offset %rbx, -16
	movq	__hip_gpubin_handle_a90dab6e147871d1(%rip), %rbx
	testq	%rbx, %rbx
	jne	.LBB8_2
# %bb.1:
	movl	$__hip_fatbin_wrapper, %edi
	callq	__hipRegisterFatBinary
	movq	%rax, %rbx
	movq	%rax, __hip_gpubin_handle_a90dab6e147871d1(%rip)
.LBB8_2:
	xorps	%xmm0, %xmm0
	movups	%xmm0, 16(%rsp)
	movups	%xmm0, (%rsp)
	movl	$_Z18benchmark_baselinePjPKji, %esi
	movl	$.L__unnamed_1, %edx
	movl	$.L__unnamed_1, %ecx
	movq	%rbx, %rdi
	movl	$-1, %r8d
	xorl	%r9d, %r9d
	callq	__hipRegisterFunction
	xorps	%xmm0, %xmm0
	movups	%xmm0, 16(%rsp)
	movups	%xmm0, (%rsp)
	movl	$_Z15benchmark_opt1aPjPKji, %esi
	movl	$.L__unnamed_2, %edx
	movl	$.L__unnamed_2, %ecx
	movq	%rbx, %rdi
	movl	$-1, %r8d
	xorl	%r9d, %r9d
	callq	__hipRegisterFunction
	xorps	%xmm0, %xmm0
	movups	%xmm0, 16(%rsp)
	movups	%xmm0, (%rsp)
	movl	$_Z15benchmark_opt1bPjPKji, %esi
	movl	$.L__unnamed_3, %edx
	movl	$.L__unnamed_3, %ecx
	movq	%rbx, %rdi
	movl	$-1, %r8d
	xorl	%r9d, %r9d
	callq	__hipRegisterFunction
	xorps	%xmm0, %xmm0
	movups	%xmm0, 16(%rsp)
	movups	%xmm0, (%rsp)
	movl	$_Z14benchmark_opt2PjPKji, %esi
	movl	$.L__unnamed_4, %edx
	movl	$.L__unnamed_4, %ecx
	movq	%rbx, %rdi
	movl	$-1, %r8d
	xorl	%r9d, %r9d
	callq	__hipRegisterFunction
	xorps	%xmm0, %xmm0
	movups	%xmm0, 16(%rsp)
	movups	%xmm0, (%rsp)
	movl	$_Z14benchmark_opt6PjPKji, %esi
	movl	$.L__unnamed_5, %edx
	movl	$.L__unnamed_5, %ecx
	movq	%rbx, %rdi
	movl	$-1, %r8d
	xorl	%r9d, %r9d
	callq	__hipRegisterFunction
	xorps	%xmm0, %xmm0
	movups	%xmm0, 16(%rsp)
	movups	%xmm0, (%rsp)
	movl	$_Z18verify_correctnessPjPi, %esi
	movl	$.L__unnamed_6, %edx
	movl	$.L__unnamed_6, %ecx
	movq	%rbx, %rdi
	movl	$-1, %r8d
	xorl	%r9d, %r9d
	callq	__hipRegisterFunction
	movl	$__hip_module_dtor, %edi
	addq	$32, %rsp
	.cfi_def_cfa_offset 16
	popq	%rbx
	.cfi_def_cfa_offset 8
	jmp	atexit                          # TAILCALL
.Lfunc_end8:
	.size	__hip_module_ctor, .Lfunc_end8-__hip_module_ctor
	.cfi_endproc
                                        # -- End function
	.p2align	4                               # -- Begin function __hip_module_dtor
	.type	__hip_module_dtor,@function
__hip_module_dtor:                      # @__hip_module_dtor
	.cfi_startproc
# %bb.0:
	movq	__hip_gpubin_handle_a90dab6e147871d1(%rip), %rdi
	testq	%rdi, %rdi
	je	.LBB9_2
# %bb.1:
	pushq	%rax
	.cfi_def_cfa_offset 16
	callq	__hipUnregisterFatBinary
	movq	$0, __hip_gpubin_handle_a90dab6e147871d1(%rip)
	addq	$8, %rsp
	.cfi_def_cfa_offset 8
.LBB9_2:
	retq
.Lfunc_end9:
	.size	__hip_module_dtor, .Lfunc_end9-__hip_module_dtor
	.cfi_endproc
                                        # -- End function
	.type	_Z18benchmark_baselinePjPKji,@object # @_Z18benchmark_baselinePjPKji
	.section	.rodata,"a",@progbits
	.globl	_Z18benchmark_baselinePjPKji
	.p2align	3, 0x0
_Z18benchmark_baselinePjPKji:
	.quad	_Z33__device_stub__benchmark_baselinePjPKji
	.size	_Z18benchmark_baselinePjPKji, 8

	.type	_Z15benchmark_opt1aPjPKji,@object # @_Z15benchmark_opt1aPjPKji
	.globl	_Z15benchmark_opt1aPjPKji
	.p2align	3, 0x0
_Z15benchmark_opt1aPjPKji:
	.quad	_Z30__device_stub__benchmark_opt1aPjPKji
	.size	_Z15benchmark_opt1aPjPKji, 8

	.type	_Z15benchmark_opt1bPjPKji,@object # @_Z15benchmark_opt1bPjPKji
	.globl	_Z15benchmark_opt1bPjPKji
	.p2align	3, 0x0
_Z15benchmark_opt1bPjPKji:
	.quad	_Z30__device_stub__benchmark_opt1bPjPKji
	.size	_Z15benchmark_opt1bPjPKji, 8

	.type	_Z14benchmark_opt2PjPKji,@object # @_Z14benchmark_opt2PjPKji
	.globl	_Z14benchmark_opt2PjPKji
	.p2align	3, 0x0
_Z14benchmark_opt2PjPKji:
	.quad	_Z29__device_stub__benchmark_opt2PjPKji
	.size	_Z14benchmark_opt2PjPKji, 8

	.type	_Z14benchmark_opt6PjPKji,@object # @_Z14benchmark_opt6PjPKji
	.globl	_Z14benchmark_opt6PjPKji
	.p2align	3, 0x0
_Z14benchmark_opt6PjPKji:
	.quad	_Z29__device_stub__benchmark_opt6PjPKji
	.size	_Z14benchmark_opt6PjPKji, 8

	.type	_Z18verify_correctnessPjPi,@object # @_Z18verify_correctnessPjPi
	.globl	_Z18verify_correctnessPjPi
	.p2align	3, 0x0
_Z18verify_correctnessPjPi:
	.quad	_Z33__device_stub__verify_correctnessPjPi
	.size	_Z18verify_correctnessPjPi, 8

	.type	.L.str.4,@object                # @.str.4
	.section	.rodata.str1.1,"aMS",@progbits,1
.L.str.4:
	.asciz	"opt1b errors: %d\n"
	.size	.L.str.4, 18

	.type	.L.str.5,@object                # @.str.5
.L.str.5:
	.asciz	"opt6 errors:  %d\n"
	.size	.L.str.5, 18

	.type	.L.str.10,@object               # @.str.10
.L.str.10:
	.asciz	"Baseline (6 perm)"
	.size	.L.str.10, 18

	.type	.L.str.11,@object               # @.str.11
.L.str.11:
	.asciz	"Opt1a (BFI)"
	.size	.L.str.11, 12

	.type	.L.str.12,@object               # @.str.12
.L.str.12:
	.asciz	"Opt1b (4+2 perm)"
	.size	.L.str.12, 17

	.type	.L.str.13,@object               # @.str.13
.L.str.13:
	.asciz	"Opt2 (OOB zero)"
	.size	.L.str.13, 16

	.type	.L.str.14,@object               # @.str.14
.L.str.14:
	.asciz	"Opt6 (4 perm min)"
	.size	.L.str.14, 18

	.type	.L.str.16,@object               # @.str.16
.L.str.16:
	.asciz	"%-20s: %.3f ms avg, %.2f B ops/sec\n"
	.size	.L.str.16, 36

	.type	.L__unnamed_1,@object           # @0
.L__unnamed_1:
	.asciz	"_Z18benchmark_baselinePjPKji"
	.size	.L__unnamed_1, 29

	.type	.L__unnamed_2,@object           # @1
.L__unnamed_2:
	.asciz	"_Z15benchmark_opt1aPjPKji"
	.size	.L__unnamed_2, 26

	.type	.L__unnamed_3,@object           # @2
.L__unnamed_3:
	.asciz	"_Z15benchmark_opt1bPjPKji"
	.size	.L__unnamed_3, 26

	.type	.L__unnamed_4,@object           # @3
.L__unnamed_4:
	.asciz	"_Z14benchmark_opt2PjPKji"
	.size	.L__unnamed_4, 25

	.type	.L__unnamed_5,@object           # @4
.L__unnamed_5:
	.asciz	"_Z14benchmark_opt6PjPKji"
	.size	.L__unnamed_5, 25

	.type	.L__unnamed_6,@object           # @5
.L__unnamed_6:
	.asciz	"_Z18verify_correctnessPjPi"
	.size	.L__unnamed_6, 27

	.type	.L__unnamed_7,@object           # @6
	.section	.hip_fatbin,"a",@progbits
	.p2align	12, 0x0
.L__unnamed_7:
