	.file	"test_mxfp4_sdwa.hip"
	.text
	.globl	_Z24__device_stub__bench_refPjPKji # -- Begin function _Z24__device_stub__bench_refPjPKji
	.p2align	4
	.type	_Z24__device_stub__bench_refPjPKji,@function
_Z24__device_stub__bench_refPjPKji:     # @_Z24__device_stub__bench_refPjPKji
	.cfi_startproc
# %bb.0:
	subq	$104, %rsp
	.cfi_def_cfa_offset 112
	movq	%rdi, 72(%rsp)
	movq	%rsi, 64(%rsp)
	movl	%edx, 12(%rsp)
	leaq	72(%rsp), %rax
	movq	%rax, 80(%rsp)
	leaq	64(%rsp), %rax
	movq	%rax, 88(%rsp)
	leaq	12(%rsp), %rax
	movq	%rax, 96(%rsp)
	leaq	48(%rsp), %rdi
	leaq	32(%rsp), %rsi
	leaq	24(%rsp), %rdx
	leaq	16(%rsp), %rcx
	callq	__hipPopCallConfiguration
	movq	48(%rsp), %rsi
	movl	56(%rsp), %edx
	movq	32(%rsp), %rcx
	movl	40(%rsp), %r8d
	leaq	80(%rsp), %r9
	movl	$_Z9bench_refPjPKji, %edi
	pushq	16(%rsp)
	.cfi_adjust_cfa_offset 8
	pushq	32(%rsp)
	.cfi_adjust_cfa_offset 8
	callq	hipLaunchKernel
	addq	$120, %rsp
	.cfi_adjust_cfa_offset -120
	retq
.Lfunc_end0:
	.size	_Z24__device_stub__bench_refPjPKji, .Lfunc_end0-_Z24__device_stub__bench_refPjPKji
	.cfi_endproc
                                        # -- End function
	.globl	_Z22__device_stub__bench_hPjPKji # -- Begin function _Z22__device_stub__bench_hPjPKji
	.p2align	4
	.type	_Z22__device_stub__bench_hPjPKji,@function
_Z22__device_stub__bench_hPjPKji:       # @_Z22__device_stub__bench_hPjPKji
	.cfi_startproc
# %bb.0:
	subq	$104, %rsp
	.cfi_def_cfa_offset 112
	movq	%rdi, 72(%rsp)
	movq	%rsi, 64(%rsp)
	movl	%edx, 12(%rsp)
	leaq	72(%rsp), %rax
	movq	%rax, 80(%rsp)
	leaq	64(%rsp), %rax
	movq	%rax, 88(%rsp)
	leaq	12(%rsp), %rax
	movq	%rax, 96(%rsp)
	leaq	48(%rsp), %rdi
	leaq	32(%rsp), %rsi
	leaq	24(%rsp), %rdx
	leaq	16(%rsp), %rcx
	callq	__hipPopCallConfiguration
	movq	48(%rsp), %rsi
	movl	56(%rsp), %edx
	movq	32(%rsp), %rcx
	movl	40(%rsp), %r8d
	leaq	80(%rsp), %r9
	movl	$_Z7bench_hPjPKji, %edi
	pushq	16(%rsp)
	.cfi_adjust_cfa_offset 8
	pushq	32(%rsp)
	.cfi_adjust_cfa_offset 8
	callq	hipLaunchKernel
	addq	$120, %rsp
	.cfi_adjust_cfa_offset -120
	retq
.Lfunc_end1:
	.size	_Z22__device_stub__bench_hPjPKji, .Lfunc_end1-_Z22__device_stub__bench_hPjPKji
	.cfi_endproc
                                        # -- End function
	.globl	_Z22__device_stub__bench_iPjPKji # -- Begin function _Z22__device_stub__bench_iPjPKji
	.p2align	4
	.type	_Z22__device_stub__bench_iPjPKji,@function
_Z22__device_stub__bench_iPjPKji:       # @_Z22__device_stub__bench_iPjPKji
	.cfi_startproc
# %bb.0:
	subq	$104, %rsp
	.cfi_def_cfa_offset 112
	movq	%rdi, 72(%rsp)
	movq	%rsi, 64(%rsp)
	movl	%edx, 12(%rsp)
	leaq	72(%rsp), %rax
	movq	%rax, 80(%rsp)
	leaq	64(%rsp), %rax
	movq	%rax, 88(%rsp)
	leaq	12(%rsp), %rax
	movq	%rax, 96(%rsp)
	leaq	48(%rsp), %rdi
	leaq	32(%rsp), %rsi
	leaq	24(%rsp), %rdx
	leaq	16(%rsp), %rcx
	callq	__hipPopCallConfiguration
	movq	48(%rsp), %rsi
	movl	56(%rsp), %edx
	movq	32(%rsp), %rcx
	movl	40(%rsp), %r8d
	leaq	80(%rsp), %r9
	movl	$_Z7bench_iPjPKji, %edi
	pushq	16(%rsp)
	.cfi_adjust_cfa_offset 8
	pushq	32(%rsp)
	.cfi_adjust_cfa_offset 8
	callq	hipLaunchKernel
	addq	$120, %rsp
	.cfi_adjust_cfa_offset -120
	retq
.Lfunc_end2:
	.size	_Z22__device_stub__bench_iPjPKji, .Lfunc_end2-_Z22__device_stub__bench_iPjPKji
	.cfi_endproc
                                        # -- End function
	.globl	_Z22__device_stub__bench_lPjPKji # -- Begin function _Z22__device_stub__bench_lPjPKji
	.p2align	4
	.type	_Z22__device_stub__bench_lPjPKji,@function
_Z22__device_stub__bench_lPjPKji:       # @_Z22__device_stub__bench_lPjPKji
	.cfi_startproc
# %bb.0:
	subq	$104, %rsp
	.cfi_def_cfa_offset 112
	movq	%rdi, 72(%rsp)
	movq	%rsi, 64(%rsp)
	movl	%edx, 12(%rsp)
	leaq	72(%rsp), %rax
	movq	%rax, 80(%rsp)
	leaq	64(%rsp), %rax
	movq	%rax, 88(%rsp)
	leaq	12(%rsp), %rax
	movq	%rax, 96(%rsp)
	leaq	48(%rsp), %rdi
	leaq	32(%rsp), %rsi
	leaq	24(%rsp), %rdx
	leaq	16(%rsp), %rcx
	callq	__hipPopCallConfiguration
	movq	48(%rsp), %rsi
	movl	56(%rsp), %edx
	movq	32(%rsp), %rcx
	movl	40(%rsp), %r8d
	leaq	80(%rsp), %r9
	movl	$_Z7bench_lPjPKji, %edi
	pushq	16(%rsp)
	.cfi_adjust_cfa_offset 8
	pushq	32(%rsp)
	.cfi_adjust_cfa_offset 8
	callq	hipLaunchKernel
	addq	$120, %rsp
	.cfi_adjust_cfa_offset -120
	retq
.Lfunc_end3:
	.size	_Z22__device_stub__bench_lPjPKji, .Lfunc_end3-_Z22__device_stub__bench_lPjPKji
	.cfi_endproc
                                        # -- End function
	.globl	_Z21__device_stub__verifyPi     # -- Begin function _Z21__device_stub__verifyPi
	.p2align	4
	.type	_Z21__device_stub__verifyPi,@function
_Z21__device_stub__verifyPi:            # @_Z21__device_stub__verifyPi
	.cfi_startproc
# %bb.0:
	subq	$72, %rsp
	.cfi_def_cfa_offset 80
	movq	%rdi, 64(%rsp)
	leaq	64(%rsp), %rax
	movq	%rax, (%rsp)
	leaq	48(%rsp), %rdi
	leaq	32(%rsp), %rsi
	leaq	24(%rsp), %rdx
	leaq	16(%rsp), %rcx
	callq	__hipPopCallConfiguration
	movq	48(%rsp), %rsi
	movl	56(%rsp), %edx
	movq	32(%rsp), %rcx
	movl	40(%rsp), %r8d
	movq	%rsp, %r9
	movl	$_Z6verifyPi, %edi
	pushq	16(%rsp)
	.cfi_adjust_cfa_offset 8
	pushq	32(%rsp)
	.cfi_adjust_cfa_offset 8
	callq	hipLaunchKernel
	addq	$88, %rsp
	.cfi_adjust_cfa_offset -88
	retq
.Lfunc_end4:
	.size	_Z21__device_stub__verifyPi, .Lfunc_end4-_Z21__device_stub__verifyPi
	.cfi_endproc
                                        # -- End function
	.globl	main                            # -- Begin function main
	.p2align	4
	.type	main,@function
main:                                   # @main
	.cfi_startproc
# %bb.0:
	pushq	%r15
	.cfi_def_cfa_offset 16
	pushq	%r14
	.cfi_def_cfa_offset 24
	pushq	%r12
	.cfi_def_cfa_offset 32
	pushq	%rbx
	.cfi_def_cfa_offset 40
	subq	$104, %rsp
	.cfi_def_cfa_offset 144
	.cfi_offset %rbx, -40
	.cfi_offset %r12, -32
	.cfi_offset %r14, -24
	.cfi_offset %r15, -16
	movl	$.Lstr, %edi
	callq	puts@PLT
	movl	$.Lstr.1, %edi
	callq	puts@PLT
	leaq	16(%rsp), %rdi
	movl	$16, %esi
	callq	hipMalloc
	movq	16(%rsp), %rdi
	movl	$16, %edx
	xorl	%esi, %esi
	callq	hipMemset
	movabsq	$4294967552, %rdi               # imm = 0x100000100
	movl	$1, %esi
	movq	%rdi, %rdx
	movl	$1, %ecx
	xorl	%r8d, %r8d
	xorl	%r9d, %r9d
	callq	__hipPushCallConfiguration
	testl	%eax, %eax
	jne	.LBB5_2
# %bb.1:
	leaq	24(%rsp), %rax
	movq	16(%rsp), %rcx
	movq	%rcx, 24(%rsp)
	movq	%rax, 32(%rsp)
	leaq	64(%rsp), %rdi
	movq	%rsp, %rsi
	leaq	48(%rsp), %rdx
	leaq	40(%rsp), %rcx
	callq	__hipPopCallConfiguration
	movq	64(%rsp), %rsi
	movl	72(%rsp), %edx
	movq	(%rsp), %rcx
	movl	8(%rsp), %r8d
	leaq	32(%rsp), %r9
	movl	$_Z6verifyPi, %edi
	pushq	40(%rsp)
	.cfi_adjust_cfa_offset 8
	pushq	56(%rsp)
	.cfi_adjust_cfa_offset 8
	callq	hipLaunchKernel
	addq	$16, %rsp
	.cfi_adjust_cfa_offset -16
.LBB5_2:
	callq	hipDeviceSynchronize
	movq	16(%rsp), %rsi
	movq	%rsp, %rdi
	movl	$16, %edx
	movl	$2, %ecx
	callq	hipMemcpy
	movl	(%rsp), %esi
	xorl	%r12d, %r12d
	movl	$.L.str.2, %edi
	xorl	%eax, %eax
	callq	printf
	movl	4(%rsp), %esi
	movl	$.L.str.3, %edi
	xorl	%eax, %eax
	callq	printf
	movl	8(%rsp), %esi
	movl	$.L.str.4, %edi
	xorl	%eax, %eax
	callq	printf
	movq	16(%rsp), %rdi
	callq	hipFree
	movl	4(%rsp), %eax
	orl	(%rsp), %eax
	movl	$.Lstr.3, %ecx
	movl	$.Lstr.2, %edi
	orl	8(%rsp), %eax
	cmovneq	%rcx, %rdi
	callq	puts@PLT
	movl	$1048576, 40(%rsp)              # imm = 0x100000
	leaq	24(%rsp), %rbx
	movl	$4194304, %esi                  # imm = 0x400000
	movq	%rbx, %rdi
	callq	hipMalloc
	leaq	48(%rsp), %r14
	movl	$8388608, %esi                  # imm = 0x800000
	movq	%r14, %rdi
	callq	hipMalloc
	movl	$4194304, %edi                  # imm = 0x400000
	callq	_Znam
	movq	%rax, %r15
	.p2align	4
.LBB5_3:                                # =>This Inner Loop Header: Depth=1
	callq	rand
	movl	%eax, (%r15,%r12,4)
	incq	%r12
	cmpq	$1048576, %r12                  # imm = 0x100000
	jne	.LBB5_3
# %bb.4:
	movq	24(%rsp), %rdi
	movl	$4194304, %edx                  # imm = 0x400000
	movq	%r15, %rsi
	movl	$1, %ecx
	callq	hipMemcpy
	movq	%r15, %rdi
	callq	_ZdaPv
	movl	$256, 32(%rsp)                  # imm = 0x100
	movl	$4096, 60(%rsp)                 # imm = 0x1000
	leaq	60(%rsp), %rax
	movq	%rax, 64(%rsp)
	leaq	32(%rsp), %rax
	movq	%rax, 72(%rsp)
	movq	%r14, 80(%rsp)
	movq	%rbx, 88(%rsp)
	leaq	40(%rsp), %rax
	movq	%rax, 96(%rsp)
	movl	$.Lstr.4, %edi
	callq	puts@PLT
	leaq	64(%rsp), %rbx
	movl	$.L.str.8, %esi
	movl	$_Z24__device_stub__bench_refPjPKji, %edx
	movq	%rbx, %rdi
	callq	_ZZ4mainENKUlPKcT_E_clIPFvPjPKjiEEEDaS0_S1_
	movl	$.L.str.9, %esi
	movl	$_Z22__device_stub__bench_hPjPKji, %edx
	movq	%rbx, %rdi
	callq	_ZZ4mainENKUlPKcT_E_clIPFvPjPKjiEEEDaS0_S1_
	movl	$.L.str.10, %esi
	movl	$_Z22__device_stub__bench_iPjPKji, %edx
	movq	%rbx, %rdi
	callq	_ZZ4mainENKUlPKcT_E_clIPFvPjPKjiEEEDaS0_S1_
	movl	$.L.str.11, %esi
	movl	$_Z22__device_stub__bench_lPjPKji, %edx
	movq	%rbx, %rdi
	callq	_ZZ4mainENKUlPKcT_E_clIPFvPjPKjiEEEDaS0_S1_
	movq	24(%rsp), %rdi
	callq	hipFree
	movq	48(%rsp), %rdi
	callq	hipFree
	xorl	%eax, %eax
	addq	$104, %rsp
	.cfi_def_cfa_offset 40
	popq	%rbx
	.cfi_def_cfa_offset 32
	popq	%r12
	.cfi_def_cfa_offset 24
	popq	%r14
	.cfi_def_cfa_offset 16
	popq	%r15
	.cfi_def_cfa_offset 8
	retq
.Lfunc_end5:
	.size	main, .Lfunc_end5-main
	.cfi_endproc
                                        # -- End function
	.section	.rodata.cst8,"aM",@progbits,8
	.p2align	3, 0x0                          # -- Begin function _ZZ4mainENKUlPKcT_E_clIPFvPjPKjiEEEDaS0_S1_
.LCPI6_0:
	.quad	0x412e848000000000              # double 1.0E+6
.LCPI6_1:
	.quad	0x4034000000000000              # double 20
.LCPI6_2:
	.quad	0x408f400000000000              # double 1000
.LCPI6_3:
	.quad	0x4199000000000000              # double 104857600
.LCPI6_4:
	.quad	0x41cdcd6500000000              # double 1.0E+9
	.text
	.p2align	4
	.type	_ZZ4mainENKUlPKcT_E_clIPFvPjPKjiEEEDaS0_S1_,@function
_ZZ4mainENKUlPKcT_E_clIPFvPjPKjiEEEDaS0_S1_: # @_ZZ4mainENKUlPKcT_E_clIPFvPjPKjiEEEDaS0_S1_
	.cfi_startproc
# %bb.0:
	pushq	%rbp
	.cfi_def_cfa_offset 16
	pushq	%r15
	.cfi_def_cfa_offset 24
	pushq	%r14
	.cfi_def_cfa_offset 32
	pushq	%r13
	.cfi_def_cfa_offset 40
	pushq	%r12
	.cfi_def_cfa_offset 48
	pushq	%rbx
	.cfi_def_cfa_offset 56
	pushq	%rax
	.cfi_def_cfa_offset 64
	.cfi_offset %rbx, -56
	.cfi_offset %r12, -48
	.cfi_offset %r13, -40
	.cfi_offset %r14, -32
	.cfi_offset %r15, -24
	.cfi_offset %rbp, -16
	movq	%rdx, %r14
	movq	%rsi, %rbx
	movq	%rdi, %r15
	movabsq	$4294967296, %r13               # imm = 0x100000000
	movq	(%rdi), %rax
	movq	8(%rdi), %rcx
	movl	(%rax), %edi
	movl	(%rcx), %edx
	orq	%r13, %rdi
	orq	%r13, %rdx
	movl	$1, %esi
	movl	$1, %ecx
	xorl	%r8d, %r8d
	xorl	%r9d, %r9d
	callq	__hipPushCallConfiguration
	testl	%eax, %eax
	jne	.LBB6_2
# %bb.1:
	movq	16(%r15), %rax
	movq	24(%r15), %rcx
	movq	(%rax), %rdi
	movq	(%rcx), %rsi
	movl	$1048576, %edx                  # imm = 0x100000
	callq	*%r14
.LBB6_2:
	movq	(%r15), %rax
	movq	8(%r15), %rcx
	movl	(%rax), %edi
	movl	(%rcx), %edx
	orq	%r13, %rdi
	orq	%r13, %rdx
	movl	$1, %esi
	movl	$1, %ecx
	xorl	%r8d, %r8d
	xorl	%r9d, %r9d
	callq	__hipPushCallConfiguration
	testl	%eax, %eax
	jne	.LBB6_4
# %bb.3:
	movq	16(%r15), %rax
	movq	24(%r15), %rcx
	movq	(%rax), %rdi
	movq	(%rcx), %rsi
	movl	$1048576, %edx                  # imm = 0x100000
	callq	*%r14
.LBB6_4:
	movq	(%r15), %rax
	movq	8(%r15), %rcx
	movl	(%rax), %edi
	movl	(%rcx), %edx
	orq	%r13, %rdi
	orq	%r13, %rdx
	movl	$1, %esi
	movl	$1, %ecx
	xorl	%r8d, %r8d
	xorl	%r9d, %r9d
	callq	__hipPushCallConfiguration
	testl	%eax, %eax
	jne	.LBB6_6
# %bb.5:
	movq	16(%r15), %rax
	movq	24(%r15), %rcx
	movq	(%rax), %rdi
	movq	(%rcx), %rsi
	movl	$1048576, %edx                  # imm = 0x100000
	callq	*%r14
.LBB6_6:
	movq	(%r15), %rax
	movq	8(%r15), %rcx
	movl	(%rax), %edi
	movl	(%rcx), %edx
	orq	%r13, %rdi
	orq	%r13, %rdx
	movl	$1, %esi
	movl	$1, %ecx
	xorl	%r8d, %r8d
	xorl	%r9d, %r9d
	callq	__hipPushCallConfiguration
	testl	%eax, %eax
	jne	.LBB6_8
# %bb.7:
	movq	16(%r15), %rax
	movq	24(%r15), %rcx
	movq	(%rax), %rdi
	movq	(%rcx), %rsi
	movl	$1048576, %edx                  # imm = 0x100000
	callq	*%r14
.LBB6_8:
	movq	(%r15), %rax
	movq	8(%r15), %rcx
	movl	(%rax), %edi
	movl	(%rcx), %edx
	orq	%r13, %rdi
	orq	%r13, %rdx
	movl	$1, %esi
	movl	$1, %ecx
	xorl	%r8d, %r8d
	xorl	%r9d, %r9d
	callq	__hipPushCallConfiguration
	testl	%eax, %eax
	jne	.LBB6_10
# %bb.9:
	movq	16(%r15), %rax
	movq	24(%r15), %rcx
	movq	(%rax), %rdi
	movq	(%rcx), %rsi
	movl	$1048576, %edx                  # imm = 0x100000
	callq	*%r14
.LBB6_10:
	callq	hipDeviceSynchronize
	movl	$20, %ebp
	callq	_ZNSt6chrono3_V212system_clock3nowEv
	movq	%rax, %r12
	jmp	.LBB6_11
	.p2align	4
.LBB6_13:                               #   in Loop: Header=BB6_11 Depth=1
	decl	%ebp
	je	.LBB6_14
.LBB6_11:                               # =>This Inner Loop Header: Depth=1
	movq	(%r15), %rax
	movq	8(%r15), %rcx
	movl	(%rax), %edi
	movl	(%rcx), %edx
	orq	%r13, %rdi
	orq	%r13, %rdx
	movl	$1, %esi
	movl	$1, %ecx
	xorl	%r8d, %r8d
	xorl	%r9d, %r9d
	callq	__hipPushCallConfiguration
	testl	%eax, %eax
	jne	.LBB6_13
# %bb.12:                               #   in Loop: Header=BB6_11 Depth=1
	movq	16(%r15), %rax
	movq	24(%r15), %rcx
	movq	(%rax), %rdi
	movq	(%rcx), %rsi
	movl	$1048576, %edx                  # imm = 0x100000
	callq	*%r14
	jmp	.LBB6_13
.LBB6_14:
	callq	hipDeviceSynchronize
	callq	_ZNSt6chrono3_V212system_clock3nowEv
	subq	%r12, %rax
	cvtsi2sd	%rax, %xmm0
	divsd	.LCPI6_0(%rip), %xmm0
	divsd	.LCPI6_1(%rip), %xmm0
	movapd	%xmm0, %xmm2
	divsd	.LCPI6_2(%rip), %xmm2
	movsd	.LCPI6_3(%rip), %xmm1           # xmm1 = [1.048576E+8,0.0E+0]
	divsd	%xmm2, %xmm1
	divsd	.LCPI6_4(%rip), %xmm1
	movl	$.L.str.12, %edi
	movq	%rbx, %rsi
	movb	$2, %al
	addq	$8, %rsp
	.cfi_def_cfa_offset 56
	popq	%rbx
	.cfi_def_cfa_offset 48
	popq	%r12
	.cfi_def_cfa_offset 40
	popq	%r13
	.cfi_def_cfa_offset 32
	popq	%r14
	.cfi_def_cfa_offset 24
	popq	%r15
	.cfi_def_cfa_offset 16
	popq	%rbp
	.cfi_def_cfa_offset 8
	jmp	printf                          # TAILCALL
.Lfunc_end6:
	.size	_ZZ4mainENKUlPKcT_E_clIPFvPjPKjiEEEDaS0_S1_, .Lfunc_end6-_ZZ4mainENKUlPKcT_E_clIPFvPjPKjiEEEDaS0_S1_
	.cfi_endproc
                                        # -- End function
	.p2align	4                               # -- Begin function __hip_module_ctor
	.type	__hip_module_ctor,@function
__hip_module_ctor:                      # @__hip_module_ctor
	.cfi_startproc
# %bb.0:
	pushq	%rbx
	.cfi_def_cfa_offset 16
	subq	$32, %rsp
	.cfi_def_cfa_offset 48
	.cfi_offset %rbx, -16
	movq	__hip_gpubin_handle_87282b2f4982cd8e(%rip), %rbx
	testq	%rbx, %rbx
	jne	.LBB7_2
# %bb.1:
	movl	$__hip_fatbin_wrapper, %edi
	callq	__hipRegisterFatBinary
	movq	%rax, %rbx
	movq	%rax, __hip_gpubin_handle_87282b2f4982cd8e(%rip)
.LBB7_2:
	xorps	%xmm0, %xmm0
	movups	%xmm0, 16(%rsp)
	movups	%xmm0, (%rsp)
	movl	$_Z9bench_refPjPKji, %esi
	movl	$.L__unnamed_1, %edx
	movl	$.L__unnamed_1, %ecx
	movq	%rbx, %rdi
	movl	$-1, %r8d
	xorl	%r9d, %r9d
	callq	__hipRegisterFunction
	xorps	%xmm0, %xmm0
	movups	%xmm0, 16(%rsp)
	movups	%xmm0, (%rsp)
	movl	$_Z7bench_hPjPKji, %esi
	movl	$.L__unnamed_2, %edx
	movl	$.L__unnamed_2, %ecx
	movq	%rbx, %rdi
	movl	$-1, %r8d
	xorl	%r9d, %r9d
	callq	__hipRegisterFunction
	xorps	%xmm0, %xmm0
	movups	%xmm0, 16(%rsp)
	movups	%xmm0, (%rsp)
	movl	$_Z7bench_iPjPKji, %esi
	movl	$.L__unnamed_3, %edx
	movl	$.L__unnamed_3, %ecx
	movq	%rbx, %rdi
	movl	$-1, %r8d
	xorl	%r9d, %r9d
	callq	__hipRegisterFunction
	xorps	%xmm0, %xmm0
	movups	%xmm0, 16(%rsp)
	movups	%xmm0, (%rsp)
	movl	$_Z7bench_lPjPKji, %esi
	movl	$.L__unnamed_4, %edx
	movl	$.L__unnamed_4, %ecx
	movq	%rbx, %rdi
	movl	$-1, %r8d
	xorl	%r9d, %r9d
	callq	__hipRegisterFunction
	xorps	%xmm0, %xmm0
	movups	%xmm0, 16(%rsp)
	movups	%xmm0, (%rsp)
	movl	$_Z6verifyPi, %esi
	movl	$.L__unnamed_5, %edx
	movl	$.L__unnamed_5, %ecx
	movq	%rbx, %rdi
	movl	$-1, %r8d
	xorl	%r9d, %r9d
	callq	__hipRegisterFunction
	movl	$__hip_module_dtor, %edi
	addq	$32, %rsp
	.cfi_def_cfa_offset 16
	popq	%rbx
	.cfi_def_cfa_offset 8
	jmp	atexit                          # TAILCALL
.Lfunc_end7:
	.size	__hip_module_ctor, .Lfunc_end7-__hip_module_ctor
	.cfi_endproc
                                        # -- End function
	.p2align	4                               # -- Begin function __hip_module_dtor
	.type	__hip_module_dtor,@function
__hip_module_dtor:                      # @__hip_module_dtor
	.cfi_startproc
# %bb.0:
	movq	__hip_gpubin_handle_87282b2f4982cd8e(%rip), %rdi
	testq	%rdi, %rdi
	je	.LBB8_2
# %bb.1:
	pushq	%rax
	.cfi_def_cfa_offset 16
	callq	__hipUnregisterFatBinary
	movq	$0, __hip_gpubin_handle_87282b2f4982cd8e(%rip)
	addq	$8, %rsp
	.cfi_def_cfa_offset 8
.LBB8_2:
	retq
.Lfunc_end8:
	.size	__hip_module_dtor, .Lfunc_end8-__hip_module_dtor
	.cfi_endproc
                                        # -- End function
	.type	_Z9bench_refPjPKji,@object      # @_Z9bench_refPjPKji
	.section	.rodata,"a",@progbits
	.globl	_Z9bench_refPjPKji
	.p2align	3, 0x0
_Z9bench_refPjPKji:
	.quad	_Z24__device_stub__bench_refPjPKji
	.size	_Z9bench_refPjPKji, 8

	.type	_Z7bench_hPjPKji,@object        # @_Z7bench_hPjPKji
	.globl	_Z7bench_hPjPKji
	.p2align	3, 0x0
_Z7bench_hPjPKji:
	.quad	_Z22__device_stub__bench_hPjPKji
	.size	_Z7bench_hPjPKji, 8

	.type	_Z7bench_iPjPKji,@object        # @_Z7bench_iPjPKji
	.globl	_Z7bench_iPjPKji
	.p2align	3, 0x0
_Z7bench_iPjPKji:
	.quad	_Z22__device_stub__bench_iPjPKji
	.size	_Z7bench_iPjPKji, 8

	.type	_Z7bench_lPjPKji,@object        # @_Z7bench_lPjPKji
	.globl	_Z7bench_lPjPKji
	.p2align	3, 0x0
_Z7bench_lPjPKji:
	.quad	_Z22__device_stub__bench_lPjPKji
	.size	_Z7bench_lPjPKji, 8

	.type	_Z6verifyPi,@object             # @_Z6verifyPi
	.globl	_Z6verifyPi
	.p2align	3, 0x0
_Z6verifyPi:
	.quad	_Z21__device_stub__verifyPi
	.size	_Z6verifyPi, 8

	.type	.L.str.2,@object                # @.str.2
	.section	.rodata.str1.1,"aMS",@progbits,1
.L.str.2:
	.asciz	"Opt H (3-perm merge) errors: %d\n"
	.size	.L.str.2, 33

	.type	.L.str.3,@object                # @.str.3
.L.str.3:
	.asciz	"Opt I (4-perm total) errors: %d\n"
	.size	.L.str.3, 33

	.type	.L.str.4,@object                # @.str.4
.L.str.4:
	.asciz	"Opt L (lshl_add)     errors: %d\n"
	.size	.L.str.4, 33

	.type	.L.str.8,@object                # @.str.8
.L.str.8:
	.asciz	"Ref (OOB 4-perm)"
	.size	.L.str.8, 17

	.type	.L.str.9,@object                # @.str.9
.L.str.9:
	.asciz	"Opt H (6-perm merge)"
	.size	.L.str.9, 21

	.type	.L.str.10,@object               # @.str.10
.L.str.10:
	.asciz	"Opt I (4-perm OOB)"
	.size	.L.str.10, 19

	.type	.L.str.11,@object               # @.str.11
.L.str.11:
	.asciz	"Opt L (lshl_add)"
	.size	.L.str.11, 17

	.type	.L.str.12,@object               # @.str.12
.L.str.12:
	.asciz	"%-22s: %.3f ms, %.2f Gops/s\n"
	.size	.L.str.12, 29

	.type	.L__unnamed_1,@object           # @0
.L__unnamed_1:
	.asciz	"_Z9bench_refPjPKji"
	.size	.L__unnamed_1, 19

	.type	.L__unnamed_2,@object           # @1
.L__unnamed_2:
	.asciz	"_Z7bench_hPjPKji"
	.size	.L__unnamed_2, 17

	.type	.L__unnamed_3,@object           # @2
.L__unnamed_3:
	.asciz	"_Z7bench_iPjPKji"
	.size	.L__unnamed_3, 17

	.type	.L__unnamed_4,@object           # @3
.L__unnamed_4:
	.asciz	"_Z7bench_lPjPKji"
	.size	.L__unnamed_4, 17

	.type	.L__unnamed_5,@object           # @4
.L__unnamed_5:
	.asciz	"_Z6verifyPi"
	.size	.L__unnamed_5, 12

	.type	.L__unnamed_6,@object           # @5
	.section	.hip_fatbin,"a",@progbits
	.p2align	12, 0x0
.L__unnamed_6:
	.asciz	"__CLANG_OFFLOAD_BUNDLE__\002\000\000\000\000\000\000\000\000\020\000\000\000\000\000\000\000\000\000\000\000\000\000\000\036\000\000\000\000\000\000\000host-x86_64-unknown-linux-gnu-\000\020\000\000\000\000\000\000`\343\000\000\000\000\000\000\037\000\000\000\000\000\000\000hipv4-amdgcn-amd-amdhsa--gfx906\000\000\000\000\000\000\000\000\000\000\000\000\000\000\000\000\000\000\000\000\000\000\000\000\000\000\000\000\000\000\000\000\000\000\000\000\000\000\000\000\000\000\000\000\000\000\000\000\000\000\000\000\000\000\000\000\000\000\000\000\000\000\000\000\000\000\000\000\000\000\000\000\000\000\000\000\000\000\000\000\000\000\000\000\000\000\000\000\000\000\000\000\000\000\000\000\000\000\000\000\000\000\000\000\000\000\000\000\000\000\000\000\000\000\000\000\000\000\000\000\000\000\000\000\000\000\000\000\000\000\000\000\000\000\000\000\000\000\000\000\000\000\000\000\000\000\000\000\000\000\000\000\000\000\000\000\000\000\000\000\000\000\000\000\000\000\000\000\000\000\000\000\000\000\000\000\000\000\000\000\000\000\000\000\000\000\000\000\000\000\000\000\000\000\000\000\000\000\000\000\000\000\000\000\000\000\000\000\000\000\000\000\000\000\000\000\000\000\000\000\000\000\000\000\000\000\000\000\000\000\000\000\000\000\000\000\000\000\000\000\000\000\000\000\000\000\000\000\000\000\000\000\000\000\000\000\000\000\000\000\000\000\000\000\000\000\000\000\000\000\000\000\000\000\000\000\000\000\000\000\000\000\000\000\000\000\000\000\000\000\000\000\000\000\000\000\000\000\000\000\000\000\000\000\000\000\000\000\000\000\000\000\000\000\000\000\000\000\000\000\000\000\000\000\000\000\000\000\000\000\000\000\000\000\000\000\000\000\000\000\000\000\000\000\000\000\000\000\000\000\000\000\000\000\000\000\000\000\000\000\000\000\000\000\000\000\000\000\000\000\000\000\000\000\000\000\000\000\000\000\000\000\000\000\000\000\000\000\000\000\000\000\000\000\000\000\000\000\000\000\000\000\000\000\000\000\000\000\000\000\000\000\000\000\000\000\000\000\000\000\000\000\000\000\000\000\000\000\000\000\000\000\000\000\000\000\000\000\000\000\000\000\000\000\000\000\000\000\000\000\000\000\000\000\000\000\000\000\000\000\000\000\000\000\000\000\000\000\000\000\000\000\000\000\000\000\000\000\000\000\000\000\000\000\000\000\000\000\000\000\000\000\000\000\000\000\000\000\000\000\000\000\000\000\000\000\000\000\000\000\000\000\000\000\000\000\000\000\000\000\000\000\000\000\000\000\000\000\000\000\000\000\000\000\000\000\000\000\000\000\000\000\000\000\000\000\000\000\000\000\000\000\000\000\000\000\000\000\000\000\000\000\000\000\000\000\000\000\000\000\000\000\000\000\000\000\000\000\000\000\000\000\000\000\000\000\000\000\000\000\000\000\000\000\000\000\000\000\000\000\000\000\000\000\000\000\000\000\000\000\000\000\000\000\000\000\000\000\000\000\000\000\000\000\000\000\000\000\000\000\000\000\000\000\000\000\000\000\000\000\000\000\000\000\000\000\000\000\000\000\000\000\000\000\000\000\000\000\000\000\000\000\000\000\000\000\000\000\000\000\000\000\000\000\000\000\000\000\000\000\000\000\000\000\000\000\000\000\000\000\000\000\000\000\000\000\000\000\000\000\000\000\000\000\000\000\000\000\000\000\000\000\000\000\000\000\000\000\000\000\000\000\000\000\000\000\000\000\000\000\000\000\000\000\000\000\000\000\000\000\000\000\000\000\000\000\000\000\000\000\000\000\000\000\000\000\000\000\000\000\000\000\000\000\000\000\000\000\000\000\000\000\000\000\000\000\000\000\000\000\000\000\000\000\000\000\000\000\000\000\000\000\000\000\000\000\000\000\000\000\000\000\000\000\000\000\000\000\000\000\000\000\000\000\000\000\000\000\000\000\000\000\000\000\000\000\000\000\000\000\000\000\000\000\000\000\000\000\000\000\000\000\000\000\000\000\000\000\000\000\000\000\000\000\000\000\000\000\000\000\000\000\000\000\000\000\000\000\000\000\000\000\000\000\000\000\000\000\000\000\000\000\000\000\000\000\000\000\000\000\000\000\000\000\000\000\000\000\000\000\000\000\000\000\000\000\000\000\000\000\000\000\000\000\000\000\000\000\000\000\000\000\000\000\000\000\000\000\000\000\000\000\000\000\000\000\000\000\000\000\000\000\000\000\000\000\000\000\000\000\000\000\000\000\000\000\000\000\000\000\000\000\000\000\000\000\000\000\000\000\000\000\000\000\000\000\000\000\000\000\000\000\000\000\000\000\000\000\000\000\000\000\000\000\000\000\000\000\000\000\000\000\000\000\000\000\000\000\000\000\000\000\000\000\000\000\000\000\000\000\000\000\000\000\000\000\000\000\000\000\000\000\000\000\000\000\000\000\000\000\000\000\000\000\000\000\000\000\000\000\000\000\000\000\000\000\000\000\000\000\000\000\000\000\000\000\000\000\000\000\000\000\000\000\000\000\000\000\000\000\000\000\000\000\000\000\000\000\000\000\000\000\000\000\000\000\000\000\000\000\000\000\000\000\000\000\000\000\000\000\000\000\000\000\000\000\000\000\000\000\000\000\000\000\000\000\000\000\000\000\000\000\000\000\000\000\000\000\000\000\000\000\000\000\000\000\000\000\000\000\000\000\000\000\000\000\000\000\000\000\000\000\000\000\000\000\000\000\000\000\000\000\000\000\000\000\000\000\000\000\000\000\000\000\000\000\000\000\000\000\000\000\000\000\000\000\000\000\000\000\000\000\000\000\000\000\000\000\000\000\000\000\000\000\000\000\000\000\000\000\000\000\000\000\000\000\000\000\000\000\000\000\000\000\000\000\000\000\000\000\000\000\000\000\000\000\000\000\000\000\000\000\000\000\000\000\000\000\000\000\000\000\000\000\000\000\000\000\000\000\000\000\000\000\000\000\000\000\000\000\000\000\000\000\000\000\000\000\000\000\000\000\000\000\000\000\000\000\000\000\000\000\000\000\000\000\000\000\000\000\000\000\000\000\000\000\000\000\000\000\000\000\000\000\000\000\000\000\000\000\000\000\000\000\000\000\000\000\000\000\000\000\000\000\000\000\000\000\000\000\000\000\000\000\000\000\000\000\000\000\000\000\000\000\000\000\000\000\000\000\000\000\000\000\000\000\000\000\000\000\000\000\000\000\000\000\000\000\000\000\000\000\000\000\000\000\000\000\000\000\000\000\000\000\000\000\000\000\000\000\000\000\000\000\000\000\000\000\000\000\000\000\000\000\000\000\000\000\000\000\000\000\000\000\000\000\000\000\000\000\000\000\000\000\000\000\000\000\000\000\000\000\000\000\000\000\000\000\000\000\000\000\000\000\000\000\000\000\000\000\000\000\000\000\000\000\000\000\000\000\000\000\000\000\000\000\000\000\000\000\000\000\000\000\000\000\000\000\000\000\000\000\000\000\000\000\000\000\000\000\000\000\000\000\000\000\000\000\000\000\000\000\000\000\000\000\000\000\000\000\000\000\000\000\000\000\000\000\000\000\000\000\000\000\000\000\000\000\000\000\000\000\000\000\000\000\000\000\000\000\000\000\000\000\000\000\000\000\000\000\000\000\000\000\000\000\000\000\000\000\000\000\000\000\000\000\000\000\000\000\000\000\000\000\000\000\000\000\000\000\000\000\000\000\000\000\000\000\000\000\000\000\000\000\000\000\000\000\000\000\000\000\000\000\000\000\000\000\000\000\000\000\000\000\000\000\000\000\000\000\000\000\000\000\000\000\000\000\000\000\000\000\000\000\000\000\000\000\000\000\000\000\000\000\000\000\000\000\000\000\000\000\000\000\000\000\000\000\000\000\000\000\000\000\000\000\000\000\000\000\000\000\000\000\000\000\000\000\000\000\000\000\000\000\000\000\000\000\000\000\000\000\000\000\000\000\000\000\000\000\000\000\000\000\000\000\000\000\000\000\000\000\000\000\000\000\000\000\000\000\000\000\000\000\000\000\000\000\000\000\000\000\000\000\000\000\000\000\000\000\000\000\000\000\000\000\000\000\000\000\000\000\000\000\000\000\000\000\000\000\000\000\000\000\000\000\000\000\000\000\000\000\000\000\000\000\000\000\000\000\000\000\000\000\000\000\000\000\000\000\000\000\000\000\000\000\000\000\000\000\000\000\000\000\000\000\000\000\000\000\000\000\000\000\000\000\000\000\000\000\000\000\000\000\000\000\000\000\000\000\000\000\000\000\000\000\000\000\000\000\000\000\000\000\000\000\000\000\000\000\000\000\000\000\000\000\000\000\000\000\000\000\000\000\000\000\000\000\000\000\000\000\000\000\000\000\000\000\000\000\000\000\000\000\000\000\000\000\000\000\000\000\000\000\000\000\000\000\000\000\000\000\000\000\000\000\000\000\000\000\000\000\000\000\000\000\000\000\000\000\000\000\000\000\000\000\000\000\000\000\000\000\000\000\000\000\000\000\000\000\000\000\000\000\000\000\000\000\000\000\000\000\000\000\000\000\000\000\000\000\000\000\000\000\000\000\000\000\000\000\000\000\000\000\000\000\000\000\000\000\000\000\000\000\000\000\000\000\000\000\000\000\000\000\000\000\000\000\000\000\000\000\000\000\000\000\000\000\000\000\000\000\000\000\000\000\000\000\000\000\000\000\000\000\000\000\000\000\000\000\000\000\000\000\000\000\000\000\000\000\000\000\000\000\000\000\000\000\000\000\000\000\000\000\000\000\000\000\000\000\000\000\000\000\000\000\000\000\000\000\000\000\000\000\000\000\000\000\000\000\000\000\000\000\000\000\000\000\000\000\000\000\000\000\000\000\000\000\000\000\000\000\000\000\000\000\000\000\000\000\000\000\000\000\000\000\000\000\000\000\000\000\000\000\000\000\000\000\000\000\000\000\000\000\000\000\000\000\000\000\000\000\000\000\000\000\000\000\000\000\000\000\000\000\000\000\000\000\000\000\000\000\000\000\000\000\000\000\000\000\000\000\000\000\000\000\000\000\000\000\000\000\000\000\000\000\000\000\000\000\000\000\000\000\000\000\000\000\000\000\000\000\000\000\000\000\000\000\000\000\000\000\000\000\000\000\000\000\000\000\000\000\000\000\000\000\000\000\000\000\000\000\000\000\000\000\000\000\000\000\000\000\000\000\000\000\000\000\000\000\000\000\000\000\000\000\000\000\000\000\000\000\000\000\000\000\000\000\000\000\000\000\000\000\000\000\000\000\000\000\000\000\000\000\000\000\000\000\000\000\000\000\000\000\000\000\000\000\000\000\000\000\000\000\000\000\000\000\000\000\000\000\000\000\000\000\000\000\000\000\000\000\000\000\000\000\000\000\000\000\000\000\000\000\000\000\000\000\000\000\000\000\000\000\000\000\000\000\000\000\000\000\000\000\000\000\000\000\000\000\000\000\000\000\000\000\000\000\000\000\000\000\000\000\000\000\000\000\000\000\000\000\000\000\000\000\000\000\000\000\000\000\000\000\000\000\000\000\000\000\000\000\000\000\000\000\000\000\000\000\000\000\000\000\000\000\000\000\000\000\000\000\000\000\000\000\000\000\000\000\000\000\000\000\000\000\000\000\000\000\000\000\000\000\000\000\000\000\000\000\000\000\000\000\000\000\000\000\000\000\000\000\000\000\000\000\000\000\000\000\000\000\000\000\000\000\000\000\000\000\000\000\000\000\000\000\000\000\000\000\000\000\000\000\000\000\000\000\000\000\000\000\000\000\000\000\000\000\000\000\000\000\000\000\000\000\000\000\000\000\000\000\000\000\000\000\000\000\000\000\000\000\000\000\000\000\000\000\000\000\000\000\000\000\000\000\000\000\000\000\000\000\000\000\000\000\000\000\000\000\000\000\000\000\000\000\000\000\000\000\000\000\000\000\000\000\000\000\000\000\000\000\000\000\000\000\000\000\000\000\000\000\000\000\000\000\000\000\000\000\000\000\000\000\000\000\000\000\000\000\000\000\000\000\000\000\000\000\000\000\000\000\000\000\000\000\000\000\000\000\000\000\000\000\000\000\000\000\000\000\000\000\000\000\000\000\000\000\000\000\000\000\000\000\000\000\000\000\000\000\000\000\000\000\000\000\000\000\000\000\000\000\000\000\000\000\000\000\000\000\000\000\000\000\000\000\000\000\000\000\000\000\000\000\000\000\000\000\000\000\000\000\000\000\000\000\000\000\000\000\000\000\000\000\000\000\000\000\000\000\000\000\000\000\000\000\000\000\000\000\000\000\000\000\000\000\000\000\000\000\000\000\000\000\000\000\000\000\000\000\000\000\000\000\000\000\000\000\000\000\000\000\000\000\000\000\000\000\000\000\000\000\000\000\000\000\000\000\000\000\000\000\000\000\000\000\000\000\000\000\000\000\000\000\000\000\000\000\000\000\000\000\000\000\000\000\000\000\000\000\000\000\000\000\000\000\000\000\000\000\000\000\000\000\000\000\000\000\000\000\000\000\000\000\000\000\000\000\000\000\000\000\000\000\000\000\000\000\000\000\000\000\000\000\000\000\000\000\000\000\000\000\000\000\000\000\000\000\000\000\000\000\000\000\000\000\000\000\000\000\000\000\000\000\000\000\000\000\000\000\000\000\000\000\000\000\000\000\000\000\000\000\000\000\000\000\000\000\000\000\000\000\000\000\000\000\000\000\000\000\000\000\000\000\000\000\000\000\000\000\000\000\000\000\000\000\000\000\000\000\000\000\000\000\000\000\000\000\000\000\000\000\000\000\000\000\000\000\000\000\000\000\000\000\000\000\000\000\000\000\000\000\000\000\000\000\000\000\000\000\000\000\000\000\000\000\000\000\000\000\000\000\000\000\000\000\000\000\000\000\000\000\000\000\000\000\000\000\000\000\000\000\000\000\000\000\000\000\000\000\000\000\000\000\000\000\000\000\000\000\000\000\000\000\000\000\000\000\000\000\000\000\000\000\000\000\000\000\000\000\000\000\000\000\000\000\000\000\000\000\000\000\000\000\000\000\000\000\000\000\000\000\000\000\000\000\000\000\000\000\000\000\000\000\000\000\000\000\000\000\000\000\000\000\000\000\000\000\000\000\000\000\000\000\000\000\000\000\000\000\000\000\000\000\000\000\000\000\000\000\000\000\000\000\000\000\000\000\000\000\000\000\000\000\000\000\000\000\000\000\000\000\000\000\000\000\000\000\000\000\000\000\000\000\000\000\000\000\000\000\000\000\000\000\000\000\000\000\000\000\000\000\000\000\000\000\000\000\000\000\000\000\000\000\000\000\000\000\000\000\000\000\000\000\000\000\000\000\000\000\000\000\000\000\000\000\000\000\000\000\000\000\000\000\000\000\000\000\000\000\000\000\000\000\000\000\000\000\000\000\000\000\000\000\000\000\000\000\000\000\000\000\000\000\000\000\000\000\000\000\000\000\000\000\000\000\000\000\000\000\000\000\000\000\000\000\000\000\000\000\000\000\000\000\000\000\000\000\000\000\000\000\000\000\000\000\000\000\000\000\000\000\000\000\000\000\000\000\000\000\000\000\000\000\000\000\000\000\000\000\000\000\000\000\000\000\000\000\000\000\000\000\000\000\000\000\000\000\000\000\000\000\000\000\000\000\000\000\000\000\000\000\000\000\000\000\000\000\000\000\000\000\000\000\000\000\000\000\000\000\000\000\000\000\000\000\000\000\000\000\000\000\000\000\000\000\000\000\000\000\000\000\000\000\000\000\000\000\000\000\000\000\000\000\000\000\000\000\000\000\000\000\000\000\000\000\000\000\000\000\000\000\000\000\000\000\000\000\000\000\000\000\000\000\000\000\000\000\000\000\000\000\000\000\000\000\000\000\000\000\000\000\000\000\000\000\000\000\000\000\000\000\000\000\000\000\000\000\000\000\000\000\000\000\000\000\000\000\000\000\000\000\000\000\000\000\000\000\000\000\000\000\000\000\000\000\000\000\000\000\000\000\000\000\000\000\000\000\000\000\000\000\000\000\000\000\000\000\000\000\000\000\000\000\000\000\000\000\000\000\000\000\000\000\000\000\000\000\000\000\000\000\000\000\000\000\000\000\000\000\000\000\000\000\000\000\000\000\000\000\000\000\000\000\000\000\000\000\000\000\000\000\000\000\000\000\000\000\000\000\000\000\000\000\000\000\000\000\000\000\000\000\000\000\000\000\000\000\000\000\000\000\000\000\000\000\000\000\000\000\000\000\000\000\000\000\000\000\000\000\000\000\000\000\000\000\000\000\000\000\000\000\000\000\000\000\000\000\000\000\000\000\000\000\000\000\000\000\000\000\000\000\000\000\000\000\000\000\000\000\000\000\000\000\000\000\000\000\000\000\000\000\000\000\000\000\000\000\000\000\000\000\000\000\000\000\000\000\000\000\000\000\000\000\000\000\000\000\000\000\000\000\000\000\000\000\000\000\000\000\000\000\000\000\000\000\000\000\000\000\000\000\000\000\000\000\000\000\000\000\000\000\000\000\000\000\000\000\000\000\000\000\000\000\000\000\000\000\000\000\000\000\000\000\000\000\000\000\000\000\000\000\000\000\000\000\000\000\000\000\000\000\000\000\000\000\000\000\000\000\000\000\000\000\000\000\000\000\000\000\000\000\000\000\000\000\000\000\000\000\000\000\000\000\000\000\000\000\000\000\000\000\000\000\000\000\000\000\000\000\000\000\000\000\000\000\000\000\000\000\000\000\000\000\000\000\000\000\000\000\000\000\000\000\000\000\000\000\000\000\000\000\000\000\000\000\000\000\000\000\000\000\000\000\000\000\000\000\000\000\000\000\000\000\000\000\000\000\000\000\000\000\000\000\000\000\000\000\000\000\000\000\000\000\000\000\000\000\000\000\000\000\000\000\000\000\000\000\000\000\000\000\000\000\000\000\000\000\000\000\000\000\000\000\000\000\000\000\000\000\000\000\000\000\000\000\000\000\000\000\000\000\000\000\000\177ELF\002\001\001@\004\000\000\000\000\000\000\000\003\000\340\000\001\000\000\000\000\000\000\000\000\000\000\000@\000\000\000\000\000\000\000 \337\000\000\000\000\000\000/\005\000\000@\0008\000\t\000@\000\021\000\017\000\006\000\000\000\004\000\000\000@\000\000\000\000\000\000\000@\000\000\000\000\000\000\000@\000\000\000\000\000\000\000\370\001\000\000\000\000\000\000\370\001\000\000\000\000\000\000\b\000\000\000\000\000\000\000\001\000\000\000\004\000\000\000\000\000\000\000\000\000\000\000\000\000\000\000\000\000\000\000\000\000\000\000\000\000\000\000\000\036\000\000\000\000\000\000\000\036\000\000\000\000\000\000\000\020\000\000\000\000\000\000\001\000\000\000\005\000\000\000\000\036\000\000\000\000\000\000\000.\000\000\000\000\000\000\000.\000\000\000\000\000\000\250\262\000\000\000\000\000\000\250\262\000\000\000\000\000\000\000\020\000\000\000\000\000\000\001\000\000\000\006\000\000\000\250\320\000\000\000\000\000\000\250\360\000\000\000\000\000\000\250\360\000\000\000\000\000\000p\000\000\000\000\000\000\000X\017\000\000\000\000\000\000\000\020\000\000\000\000\000\000\001\000\000\000\006\000\000\000\030\321\000\000\000\000\000\000\030\001\001\000\000\000\000\000\030\001\001\000\000\000\000\000\000\000\000\000\000\000\000\000\001\000\000\000\000\000\000\000\000\020\000\000\000\000\000\000\002\000\000\000\006\000\000\000\250\320\000\000\000\000\000\000\250\360\000\000\000\000\000\000\250\360\000\000\000\000\000\000p\000\000\000\000\000\000\000p\000\000\000\000\000\000\000\b\000\000\000\000\000\000\000R\345td\004\000\000\000\250\320\000\000\000\000\000\000\250\360\000\000\000\000\000\000\250\360\000\000\000\000\000\000p\000\000\000\000\000\000\000X\017\000\000\000\000\000\000\001\000\000\000\000\000\000\000Q\345td\006\000\000\000\000\000\000\000\000\000\000\000\000\000\000\000\000\000\000\000\000\000\000\000\000\000\000\000\000\000\000\000\000\000\000\000\000\000\000\000\000\000\000\000\000\000\000\000\000\000\000\000\004\000\000\000\004\000\000\0008\002\000\000\000\000\000\0008\002\000\000\000\000\000\0008\002\000\000\000\000\000\000\260\027\000\000\000\000\000\000\260\027\000\000\000\000\000\000\004\000\000\000\000\000\000\000\007\000\000\000\233\027\000\000 \000\000\000AMDGPU\000\000\203\256amdhsa.kernels\225\336\000\021\245.args\334\000\020\205\256.actual_access\252write_only\256.address_space\246global\247.offset\000\245.size\b\253.value_kind\255global_buffer\205\256.actual_access\251read_only\256.address_space\246global\247.offset\b\245.size\b\253.value_kind\255global_buffer\203\247.offset\020\245.size\004\253.value_kind\250by_value\203\247.offset\030\245.size\004\253.value_kind\264hidden_block_count_x\203\247.offset\034\245.size\004\253.value_kind\264hidden_block_count_y\203\247.offset \245.size\004\253.value_kind\264hidden_block_count_z\203\247.offset$\245.size\002\253.value_kind\263hidden_group_size_x\203\247.offset&\245.size\002\253.value_kind\263hidden_group_size_y\203\247.offset(\245.size\002\253.value_kind\263hidden_group_size_z\203\247.offset*\245.size\002\253.value_kind\262hidden_remainder_x\203\247.offset,\245.size\002\253.value_kind\262hidden_remainder_y\203\247.offset.\245.size\002\253.value_kind\262hidden_remainder_z\203\247.offset@\245.size\b\253.value_kind\266hidden_global_offset_x\203\247.offsetH\245.size\b\253.value_kind\266hidden_global_offset_y\203\247.offsetP\245.size\b\253.value_kind\266hidden_global_offset_z\203\247.offsetX\245.size\002\253.value_kind\260hidden_grid_dims\271.group_segment_fixed_size\000\266.kernarg_segment_align\b\265.kernarg_segment_size\315\001\030\251.language\250OpenCL C\261.language_version\222\002\000\270.max_flat_workgroup_size\315\004\000\245.name\262_Z9bench_refPjPKji\273.private_segment_fixed_size\000\253.sgpr_count\013\261.sgpr_spill_count\000\247.symbol\265_Z9bench_refPjPKji.kd\270.uniform_work_group_size\001\263.uses_dynamic_stack\302\253.vgpr_count\n\261.vgpr_spill_count\000\257.wavefront_size@\336\000\021\245.args\334\000\020\205\256.actual_access\252write_only\256.address_space\246global\247.offset\000\245.size\b\253.value_kind\255global_buffer\205\256.actual_access\251read_only\256.address_space\246global\247.offset\b\245.size\b\253.value_kind\255global_buffer\203\247.offset\020\245.size\004\253.value_kind\250by_value\203\247.offset\030\245.size\004\253.value_kind\264hidden_block_count_x\203\247.offset\034\245.size\004\253.value_kind\264hidden_block_count_y\203\247.offset \245.size\004\253.value_kind\264hidden_block_count_z\203\247.offset$\245.size\002\253.value_kind\263hidden_group_size_x\203\247.offset&\245.size\002\253.value_kind\263hidden_group_size_y\203\247.offset(\245.size\002\253.value_kind\263hidden_group_size_z\203\247.offset*\245.size\002\253.value_kind\262hidden_remainder_x\203\247.offset,\245.size\002\253.value_kind\262hidden_remainder_y\203\247.offset.\245.size\002\253.value_kind\262hidden_remainder_z\203\247.offset@\245.size\b\253.value_kind\266hidden_global_offset_x\203\247.offsetH\245.size\b\253.value_kind\266hidden_global_offset_y\203\247.offsetP\245.size\b\253.value_kind\266hidden_global_offset_z\203\247.offsetX\245.size\002\253.value_kind\260hidden_grid_dims\271.group_segment_fixed_size\000\266.kernarg_segment_align\b\265.kernarg_segment_size\315\001\030\251.language\250OpenCL C\261.language_version\222\002\000\270.max_flat_workgroup_size\315\004\000\245.name\260_Z7bench_hPjPKji\273.private_segment_fixed_size\000\253.sgpr_count\013\261.sgpr_spill_count\000\247.symbol\263_Z7bench_hPjPKji.kd\270.uniform_work_group_size\001\263.uses_dynamic_stack\302\253.vgpr_count\f\261.vgpr_spill_count\000\257.wavefront_size@\336\000\021\245.args\334\000\020\205\256.actual_access\252write_only\256.address_space\246global\247.offset\000\245.size\b\253.value_kind\255global_buffer\205\256.actual_access\251read_only\256.address_space\246global\247.offset\b\245.size\b\253.value_kind\255global_buffer\203\247.offset\020\245.size\004\253.value_kind\250by_value\203\247.offset\030\245.size\004\253.value_kind\264hidden_block_count_x\203\247.offset\034\245.size\004\253.value_kind\264hidden_block_count_y\203\247.offset \245.size\004\253.value_kind\264hidden_block_count_z\203\247.offset$\245.size\002\253.value_kind\263hidden_group_size_x\203\247.offset&\245.size\002\253.value_kind\263hidden_group_size_y\203\247.offset(\245.size\002\253.value_kind\263hidden_group_size_z\203\247.offset*\245.size\002\253.value_kind\262hidden_remainder_x\203\247.offset,\245.size\002\253.value_kind\262hidden_remainder_y\203\247.offset.\245.size\002\253.value_kind\262hidden_remainder_z\203\247.offset@\245.size\b\253.value_kind\266hidden_global_offset_x\203\247.offsetH\245.size\b\253.value_kind\266hidden_global_offset_y\203\247.offsetP\245.size\b\253.value_kind\266hidden_global_offset_z\203\247.offsetX\245.size\002\253.value_kind\260hidden_grid_dims\271.group_segment_fixed_size\000\266.kernarg_segment_align\b\265.kernarg_segment_size\315\001\030\251.language\250OpenCL C\261.language_version\222\002\000\270.max_flat_workgroup_size\315\004\000\245.name\260_Z7bench_iPjPKji\273.private_segment_fixed_size\000\253.sgpr_count\013\261.sgpr_spill_count\000\247.symbol\263_Z7bench_iPjPKji.kd\270.uniform_work_group_size\001\263.uses_dynamic_stack\302\253.vgpr_count\n\261.vgpr_spill_count\000\257.wavefront_size@\336\000\021\245.args\334\000\020\205\256.actual_access\252write_only\256.address_space\246global\247.offset\000\245.size\b\253.value_kind\255global_buffer\205\256.actual_access\251read_only\256.address_space\246global\247.offset\b\245.size\b\253.value_kind\255global_buffer\203\247.offset\020\245.size\004\253.value_kind\250by_value\203\247.offset\030\245.size\004\253.value_kind\264hidden_block_count_x\203\247.offset\034\245.size\004\253.value_kind\264hidden_block_count_y\203\247.offset \245.size\004\253.value_kind\264hidden_block_count_z\203\247.offset$\245.size\002\253.value_kind\263hidden_group_size_x\203\247.offset&\245.size\002\253.value_kind\263hidden_group_size_y\203\247.offset(\245.size\002\253.value_kind\263hidden_group_size_z\203\247.offset*\245.size\002\253.value_kind\262hidden_remainder_x\203\247.offset,\245.size\002\253.value_kind\262hidden_remainder_y\203\247.offset.\245.size\002\253.value_kind\262hidden_remainder_z\203\247.offset@\245.size\b\253.value_kind\266hidden_global_offset_x\203\247.offsetH\245.size\b\253.value_kind\266hidden_global_offset_y\203\247.offsetP\245.size\b\253.value_kind\266hidden_global_offset_z\203\247.offsetX\245.size\002\253.value_kind\260hidden_grid_dims\271.group_segment_fixed_size\000\266.kernarg_segment_align\b\265.kernarg_segment_size\315\001\030\251.language\250OpenCL C\261.language_version\222\002\000\270.max_flat_workgroup_size\315\004\000\245.name\260_Z7bench_lPjPKji\273.private_segment_fixed_size\000\253.sgpr_count\013\261.sgpr_spill_count\000\247.symbol\263_Z7bench_lPjPKji.kd\270.uniform_work_group_size\001\263.uses_dynamic_stack\302\253.vgpr_count\n\261.vgpr_spill_count\000\257.wavefront_size@\336\000\021\245.args\236\204\256.address_space\246global\247.offset\000\245.size\b\253.value_kind\255global_buffer\203\247.offset\b\245.size\004\253.value_kind\264hidden_block_count_x\203\247.offset\f\245.size\004\253.value_kind\264hidden_block_count_y\203\247.offset\020\245.size\004\253.value_kind\264hidden_block_count_z\203\247.offset\024\245.size\002\253.value_kind\263hidden_group_size_x\203\247.offset\026\245.size\002\253.value_kind\263hidden_group_size_y\203\247.offset\030\245.size\002\253.value_kind\263hidden_group_size_z\203\247.offset\032\245.size\002\253.value_kind\262hidden_remainder_x\203\247.offset\034\245.size\002\253.value_kind\262hidden_remainder_y\203\247.offset\036\245.size\002\253.value_kind\262hidden_remainder_z\203\247.offset0\245.size\b\253.value_kind\266hidden_global_offset_x\203\247.offset8\245.size\b\253.value_kind\266hidden_global_offset_y\203\247.offset@\245.size\b\253.value_kind\266hidden_global_offset_z\203\247.offsetH\245.size\002\253.value_kind\260hidden_grid_dims\271.group_segment_fixed_size\000\266.kernarg_segment_align\b\265.kernarg_segment_size\315\001\b\251.language\250OpenCL C\261.language_version\222\002\000\270.max_flat_workgroup_size\315\004\000\245.name\253_Z6verifyPi\273.private_segment_fixed_size\000\253.sgpr_count\f\261.sgpr_spill_count\000\247.symbol\256_Z6verifyPi.kd\270.uniform_work_group_size\001\263.uses_dynamic_stack\302\253.vgpr_count\024\261.vgpr_spill_count\000\257.wavefront_size@\255amdhsa.target\271amdgcn-amd-amdhsa--gfx906\256amdhsa.version\222\001\002\000\000\000\000\000\000\000\000\000\000\000\000\000\000\000\000\000\000\000\000\000\000\000\000\000\024\000\000\000\021\003\006\000\300\034\000\000\000\000\000\000@\000\000\000\000\000\000\000*\000\000\000\022\003\007\000\000X\000\000\000\000\000\000\360-\000\000\000\000\000\000`\000\000\000\021\003\006\000@\035\000\000\000\000\000\000@\000\000\000\000\000\000\000t\000\000\000\022\003\007\000\000\260\000\000\000\000\000\000\360-\000\000\000\000\000\000\231\000\000\000\022\003\007\000\000\336\000\000\000\000\000\000\250\002\000\000\000\000\000\000\001\000\000\000\022\003\007\000\000.\000\000\000\000\000\000P)\000\000\000\000\000\000;\000\000\000\021\003\006\000\000\035\000\000\000\000\000\000@\000\000\000\000\000\000\000O\000\000\000\022\003\007\000\000\206\000\000\000\000\000\000P)\000\000\000\000\000\000\205\000\000\000\021\003\006\000\200\035\000\000\000\000\000\000@\000\000\000\000\000\000\000\245\000\000\000\021\003\006\000\300\035\000\000\000\000\000\000@\000\000\000\000\000\000\000\264\000\000\000\021\000\n\000\030\001\001\000\000\000\000\000\001\000\000\000\000\000\000\000\002\000\000\000\001\000\000\000\004\000\000\000\032\000\000\000\000\b \000\202\000\000\t\004\000@\000\004\200\000\000 \000\004\002 \000\000\000\020\021\000\000\200\000 \202\001\000\000\000\006\000\000\0008e\"\235\304\232\253\376B7\264[\310\215\2242c\037l\275:\331\343, \246\251W\204\327\245K\244\352\323g\376M\"\347\347\200J\324\f\000\000\000\f\000\000\000\t\000\000\000\013\000\000\000\000\000\000\000\000\000\000\000\n\000\000\000\005\000\000\000\000\000\000\000\000\000\000\000\007\000\000\000\b\000\000\000\000\000\000\000\000\000\000\000\000\000\000\000\000\000\000\000\000\000\000\000\001\000\000\000\000\000\000\000\002\000\000\000\000\000\000\000\000\000\000\000\006\000\000\000\000\000\000\000\003\000\000\000\004\000\000\000\000_Z9bench_refPjPKji\000_Z9bench_refPjPKji.kd\000_Z7bench_hPjPKji\000_Z7bench_hPjPKji.kd\000_Z7bench_iPjPKji\000_Z7bench_iPjPKji.kd\000_Z7bench_lPjPKji\000_Z7bench_lPjPKji.kd\000_Z6verifyPi\000_Z6verifyPi.kd\000__hip_cuid_87282b2f4982cd8e\000\000\000\000\000\000\000\000\000\000\000\000\000\000\000\000\000\000\000\000\000\000\000\000\000\000\000\000\000\000\000\000\000\000\000\000\000\030\001\000\000\000\000\000\000@\021\000\000\000\000\000\000\000\000\000\000\000\000\000\000\000\000\000\000\000\000\000\000\000\000\000\000\000\000\000\000B\000\257\000\214\000\000\000\t\000\000\000\000\000\000\000\000\000\000\000\000\000\000\000\030\001\000\000\000\000\000\000\000;\000\000\000\000\000\000\000\000\000\000\000\000\000\000\000\000\000\000\000\000\000\000\000\000\000\000\000\000\000\000B\000\257\000\214\000\000\000\t\000\000\000\000\000\000\000\000\000\000\000\000\000\000\000\030\001\000\000\000\000\000\000\300h\000\000\000\000\000\000\000\000\000\000\000\000\000\000\000\000\000\000\000\000\000\000\000\000\000\000\000\000\000\000B\000\257\000\214\000\000\000\t\000\000\000\000\000\000\000\000\000\000\000\000\000\000\000\030\001\000\000\000\000\000\000\200\222\000\000\000\000\000\000\000\000\000\000\000\000\000\000\000\000\000\000\000\000\000\000\000\000\000\000\000\000\000\000B\000\257\000\214\000\000\000\t\000\000\000\000\000\000\000\000\000\000\000\000\000\000\000\b\001\000\000\000\000\000\000@\300\000\000\000\000\000\000\000\000\000\000\000\000\000\000\000\000\000\000\000\000\000\000\000\000\000\000\000\000\000\000D\000\257\000\214\000\000\000\t\000\000\000\000\000\000\000\002\000\002\300$\000\000\000B\000\002\300\020\000\000\000\177\300\214\277\000\377\000\206\377\377\000\000\006\000\006\222\006\000\000h\001\000\210}j \200\276G\n\210\277\002\000\n\300\000\000\000\000\237\000\002\"\001\000\217\322\202\000\002\000\377\002\b~\000\377\376\375\177\300\214\277\003\002\006~\002\002\0022\003\005\0048\000\200P\334\001\000\177\005\377\000\203\276\200\200\200\200\377\000\202\276\007\007\007\007\377\002\002~\004\006\b\f\377\002\004~\000\001\002\003\377\002\006~\374\372\370\364p\017\214\277\377\n\016&\007\007\007\007\204\n\020$\204\n\f \377\n\022&\200\200\200\200\007\000\001\322\b\007\034\004\006\000\001\322\006\005$\004\377\016\020*\200\200\200\200\377\f\022*\200\200\200\200\007\000\355\321\001\005\036\004\b\000\355\321\003\t\"\004\006\000\355\321\001\005\032\004\t\000\355\321\003\t&\004\b\017\016(\t\r\f(\007\r\f*\006\013\n*\377\n\016&\007\007\007\007\204\n\020$\204\n\f \377\n\022&\200\200\200\200\007\000\001\322\b\007\034\004\006\000\001\322\006\005$\004\377\016\020*\200\200\200\200\377\f\022*\200\200\200\200\007\000\355\321\001\005\036\004\b\000\355\321\003\t\"\004\006\000\355\321\001\005\032\004\t\000\355\321\003\t&\004\b\017\016(\t\r\f(\007\r\f*\006\013\n*\377\n\016&\007\007\007\007\204\n\020$\204\n\f \377\n\022&\200\200\200\200\007\000\001\322\b\007\034\004\006\000\001\322\006\005$\004\377\016\020*\200\200\200\200\377\f\022*\200\200\200\200\007\000\355\321\001\005\036\004\b\000\355\321\003\t\"\004\006\000\355\321\001\005\032\004\t\000\355\321\003\t&\004\b\017\016(\t\r\f(\007\r\f*\006\013\n*\377\n\016&\007\007\007\007\204\n\020$\204\n\f \377\n\022&\200\200\200\200\007\000\001\322\b\007\034\004\006\000\001\322\006\005$\004\377\016\020*\200\200\200\200\377\f\022*\200\200\200\200\007\000\355\321\001\005\036\004\b\000\355\321\003\t\"\004\006\000\355\321\001\005\032\004\t\000\355\321\003\t&\004\b\017\016(\t\r\f(\007\r\f*\006\013\n*\377\n\016&\007\007\007\007\204\n\020$\204\n\f \377\n\022&\200\200\200\200\007\000\001\322\b\007\034\004\006\000\001\322\006\005$\004\377\016\020*\200\200\200\200\377\f\022*\200\200\200\200\007\000\355\321\001\005\036\004\b\000\355\321\003\t\"\004\006\000\355\321\001\005\032\004\t\000\355\321\003\t&\004\b\017\016(\t\r\f(\007\r\f*\006\013\n*\377\n\016&\007\007\007\007\204\n\020$\204\n\f \377\n\022&\200\200\200\200\007\000\001\322\b\007\034\004\006\000\001\322\006\005$\004\377\016\020*\200\200\200\200\377\f\022*\200\200\200\200\007\000\355\321\001\005\036\004\b\000\355\321\003\t\"\004\006\000\355\321\001\005\032\004\t\000\355\321\003\t&\004\b\017\016(\t\r\f(\007\r\f*\006\013\n*\377\n\016&\007\007\007\007\204\n\020$\204\n\f \377\n\022&\200\200\200\200\007\000\001\322\b\007\034\004\006\000\001\322\006\005$\004\377\016\020*\200\200\200\200\377\f\022*\200\200\200\200\007\000\355\321\001\005\036\004\b\000\355\321\003\t\"\004\006\000\355\321\001\005\032\004\t\000\355\321\003\t&\004\b\017\016(\t\r\f(\007\r\f*\006\013\n*\377\n\016&\007\007\007\007\204\n\020$\204\n\f \377\n\022&\200\200\200\200\007\000\001\322\b\007\034\004\006\000\001\322\006\005$\004\377\016\020*\200\200\200\200\377\f\022*\200\200\200\200\007\000\355\321\001\005\036\004\b\000\355\321\003\t\"\004\006\000\355\321\001\005\032\004\t\000\355\321\003\t&\004\b\017\016(\t\r\f(\007\r\f*\006\013\n*\377\n\016&\007\007\007\007\204\n\020$\204\n\f \007\000\001\322\b\007\034\004\377\n\020&\200\200\200\200\006\000\001\322\006\005 \004\377\016\020*\200\200\200\200\377\f\022*\200\200\200\200\007\000\355\321\001\005\036\004\b\000\355\321\003\t\"\004\006\000\355\321\001\005\032\004\t\000\355\321\003\t&\004\b\017\016(\t\r\f(\007\r\f*\006\013\n*\377\n\016&\007\007\007\007\204\n\020$\204\n\f \007\000\001\322\b\007\034\004\377\n\020&\200\200\200\200\006\000\001\322\006\005 \004\377\016\020*\200\200\200\200\377\f\022*\200\200\200\200\007\000\355\321\001\005\036\004\b\000\355\321\003\t\"\004\006\000\355\321\001\005\032\004\t\000\355\321\003\t&\004\b\017\016(\t\r\f(\007\r\f*\006\013\n*\377\n\016&\007\007\007\007\204\n\020$\204\n\f \007\000\001\322\b\007\034\004\377\n\020&\200\200\200\200\006\000\001\322\006\005 \004\377\016\020*\200\200\200\200\377\f\022*\200\200\200\200\007\000\355\321\001\005\036\004\b\000\355\321\003\t\"\004\006\000\355\321\001\005\032\004\t\000\355\321\003\t&\004\b\017\016(\t\r\f(\007\r\f*\006\013\n*\377\n\016&\007\007\007\007\204\n\020$\204\n\f \007\000\001\322\b\007\034\004\377\n\020&\200\200\200\200\006\000\001\322\006\005 \004\377\016\020*\200\200\200\200\377\f\022*\200\200\200\200\007\000\355\321\001\005\036\004\b\000\355\321\003\t\"\004\006\000\355\321\001\005\032\004\t\000\355\321\003\t&\004\b\017\016(\t\r\f(\007\r\f*\006\013\n*\377\n\016&\007\007\007\007\204\n\020$\204\n\f \007\000\001\322\b\007\034\004\377\n\020&\200\200\200\200\006\000\001\322\006\005 \004\377\016\020*\200\200\200\200\377\f\022*\200\200\200\200\007\000\355\321\001\005\036\004\b\000\355\321\003\t\"\004\006\000\355\321\001\005\032\004\t\000\355\321\003\t&\004\b\017\016(\t\r\f(\007\r\f*\006\013\n*\377\n\016&\007\007\007\007\204\n\020$\204\n\f \007\000\001\322\b\007\034\004\377\n\020&\200\200\200\200\006\000\001\322\006\005 \004\377\016\020*\200\200\200\200\377\f\022*\200\200\200\200\007\000\355\321\001\005\036\004\b\000\355\321\003\t\"\004\006\000\355\321\001\005\032\004\t\000\355\321\003\t&\004\b\017\016(\t\r\f(\007\r\f*\006\013\n*\377\n\016&\007\007\007\007\204\n\020$\204\n\f \007\000\001\322\b\007\034\004\377\n\020&\200\200\200\200\006\000\001\322\006\005 \004\377\016\020*\200\200\200\200\377\f\022*\200\200\200\200\007\000\355\321\001\005\036\004\b\000\355\321\003\t\"\004\006\000\355\321\001\005\032\004\t\000\355\321\003\t&\004\b\017\016(\t\r\f(\007\r\f*\006\013\n*\377\n\016&\007\007\007\007\204\n\020$\204\n\f \007\000\001\322\b\007\034\004\377\n\020&\200\200\200\200\006\000\001\322\006\005 \004\377\016\020*\200\200\200\200\377\f\022*\200\200\200\200\007\000\355\321\001\005\036\004\b\000\355\321\003\t\"\004\006\000\355\321\001\005\032\004\t\000\355\321\003\t&\004\b\017\016(\t\r\f(\007\r\f*\006\013\n*\377\n\016&\007\007\007\007\204\n\020$\204\n\f \007\000\001\322\b\007\034\004\377\n\020&\200\200\200\200\006\000\001\322\006\005 \004\377\016\020*\200\200\200\200\377\f\022*\200\200\200\200\007\000\355\321\001\005\036\004\b\000\355\321\003\t\"\004\006\000\355\321\001\005\032\004\t\000\355\321\003\t&\004\b\017\016(\t\r\f(\007\r\f*\006\013\n*\377\n\016&\007\007\007\007\204\n\020$\204\n\f \007\000\001\322\b\007\034\004\377\n\020&\200\200\200\200\006\000\001\322\006\005 \004\377\016\020*\200\200\200\200\377\f\022*\200\200\200\200\007\000\355\321\001\005\036\004\b\000\355\321\003\t\"\004\006\000\355\321\001\005\032\004\t\000\355\321\003\t&\004\b\017\016(\t\r\f(\007\r\f*\006\013\n*\377\n\016&\007\007\007\007\204\n\020$\204\n\f \007\000\001\322\b\007\034\004\377\n\020&\200\200\200\200\006\000\001\322\006\005 \004\377\016\020*\200\200\200\200\377\f\022*\200\200\200\200\007\000\355\321\001\005\036\004\b\000\355\321\003\t\"\004\006\000\355\321\001\005\032\004\t\000\355\321\003\t&\004\b\017\016(\t\r\f(\007\r\f*\006\013\n*\377\n\016&\007\007\007\007\204\n\020$\204\n\f \007\000\001\322\b\007\034\004\377\n\020&\200\200\200\200\006\000\001\322\006\005 \004\377\016\020*\200\200\200\200\377\f\022*\200\200\200\200\007\000\355\321\001\005\036\004\b\000\355\321\003\t\"\004\006\000\355\321\001\005\032\004\t\000\355\321\003\t&\004\b\017\016(\t\r\f(\007\r\f*\006\013\n*\377\n\016&\007\007\007\007\204\n\020$\204\n\f \007\000\001\322\b\007\034\004\377\n\020&\200\200\200\200\006\000\001\322\006\005 \004\377\016\020*\200\200\200\200\377\f\022*\200\200\200\200\007\000\355\321\001\005\036\004\b\000\355\321\003\t\"\004\006\000\355\321\001\005\032\004\t\000\355\321\003\t&\004\b\017\016(\t\r\f(\007\r\f*\006\013\n*\377\n\016&\007\007\007\007\204\n\020$\204\n\f \007\000\001\322\b\007\034\004\377\n\020&\200\200\200\200\006\000\001\322\006\005 \004\377\016\020*\200\200\200\200\377\f\022*\200\200\200\200\007\000\355\321\001\005\036\004\b\000\355\321\003\t\"\004\006\000\355\321\001\005\032\004\t\000\355\321\003\t&\004\b\017\016(\t\r\f(\007\r\f*\006\013\n*\377\n\016&\007\007\007\007\204\n\020$\204\n\f \007\000\001\322\b\007\034\004\377\n\020&\200\200\200\200\006\000\001\322\006\005 \004\377\016\020*\200\200\200\200\377\f\022*\200\200\200\200\007\000\355\321\001\005\036\004\b\000\355\321\003\t\"\004\006\000\355\321\001\005\032\004\t\000\355\321\003\t&\004\b\017\016(\t\r\f(\007\r\f*\006\013\n*\377\n\016&\007\007\007\007\204\n\020$\204\n\f \007\000\001\322\b\007\034\004\377\n\020&\200\200\200\200\006\000\001\322\006\005 \004\377\016\020*\200\200\200\200\377\f\022*\200\200\200\200\007\000\355\321\001\005\036\004\b\000\355\321\003\t\"\004\006\000\355\321\001\005\032\004\t\000\355\321\003\t&\004\b\017\016(\t\r\f(\007\r\f*\006\013\n*\377\n\016&\007\007\007\007\204\n\020$\204\n\f \007\000\001\322\b\007\034\004\377\n\020&\200\200\200\200\006\000\001\322\006\005 \004\377\016\020*\200\200\200\200\377\f\022*\200\200\200\200\007\000\355\321\001\005\036\004\b\000\355\321\003\t\"\004\006\000\355\321\001\005\032\004\t\000\355\321\003\t&\004\b\017\016(\t\r\f(\007\r\f*\006\013\n*\377\n\016&\007\007\007\007\204\n\020$\204\n\f \007\000\001\322\b\007\034\004\377\n\020&\200\200\200\200\006\000\001\322\006\005 \004\377\016\020*\200\200\200\200\377\f\022*\200\200\200\200\007\000\355\321\001\005\036\004\b\000\355\321\003\t\"\004\006\000\355\321\001\005\032\004\t\000\355\321\003\t&\004\b\017\016(\t\r\f(\007\r\f*\006\013\n*\377\n\016&\007\007\007\007\204\n\020$\204\n\f \007\000\001\322\b\007\034\004\377\n\020&\200\200\200\200\006\000\001\322\006\005 \004\377\016\020*\200\200\200\200\377\f\022*\200\200\200\200\007\000\355\321\001\005\036\004\b\000\355\321\003\t\"\004\006\000\355\321\001\005\032\004\t\000\355\321\003\t&\004\b\017\016(\t\r\f(\007\r\f*\006\013\n*\377\n\016&\007\007\007\007\204\n\020$\204\n\f \007\000\001\322\b\007\034\004\377\n\020&\200\200\200\200\006\000\001\322\006\005 \004\377\016\020*\200\200\200\200\377\f\022*\200\200\200\200\007\000\355\321\001\005\036\004\b\000\355\321\003\t\"\004\006\000\355\321\001\005\032\004\t\000\355\321\003\t&\004\b\017\016(\t\r\f(\007\r\f*\006\013\n*\377\n\016&\007\007\007\007\204\n\020$\204\n\f \007\000\001\322\b\007\034\004\377\n\020&\200\200\200\200\006\000\001\322\006\005 \004\377\016\020*\200\200\200\200\377\f\022*\200\200\200\200\007\000\355\321\001\005\036\004\b\000\355\321\003\t\"\004\006\000\355\321\001\005\032\004\t\000\355\321\003\t&\004\b\017\016(\t\r\f(\007\r\f*\006\013\n*\377\n\016&\007\007\007\007\204\n\020$\204\n\f \007\000\001\322\b\007\034\004\377\n\020&\200\200\200\200\006\000\001\322\006\005 \004\377\016\020*\200\200\200\200\377\f\022*\200\200\200\200\007\000\355\321\001\005\036\004\b\000\355\321\003\t\"\004\006\000\355\321\001\005\032\004\t\000\355\321\003\t&\004\b\017\016(\t\r\f(\007\r\f*\006\013\n*\377\n\016&\007\007\007\007\204\n\020$\204\n\f \007\000\001\322\b\007\034\004\377\n\020&\200\200\200\200\006\000\001\322\006\005 \004\377\016\020*\200\200\200\200\377\f\022*\200\200\200\200\007\000\355\321\001\005\036\004\b\000\355\321\003\t\"\004\006\000\355\321\001\005\032\004\t\000\355\321\003\t&\004\b\017\016(\t\r\f(\007\r\f*\006\013\n*\377\n\016&\007\007\007\007\204\n\020$\204\n\f \007\000\001\322\b\007\034\004\377\n\020&\200\200\200\200\006\000\001\322\006\005 \004\377\016\020*\200\200\200\200\377\f\022*\200\200\200\200\007\000\355\321\001\005\036\004\b\000\355\321\003\t\"\004\006\000\355\321\001\005\032\004\t\000\355\321\003\t&\004\b\017\016(\t\r\f(\007\r\f*\006\013\n*\377\n\016&\007\007\007\007\204\n\020$\204\n\f \007\000\001\322\b\007\034\004\377\n\020&\200\200\200\200\006\000\001\322\006\005 \004\377\016\020*\200\200\200\200\377\f\022*\200\200\200\200\007\000\355\321\001\005\036\004\b\000\355\321\003\t\"\004\006\000\355\321\001\005\032\004\t\000\355\321\003\t&\004\b\017\016(\t\r\f(\007\r\f*\006\013\n*\377\n\016&\007\007\007\007\204\n\020$\204\n\f \007\000\001\322\b\007\034\004\377\n\020&\200\200\200\200\006\000\001\322\006\005 \004\377\016\020*\200\200\200\200\377\f\022*\200\200\200\200\007\000\355\321\001\005\036\004\b\000\355\321\003\t\"\004\006\000\355\321\001\005\032\004\t\000\355\321\003\t&\004\b\017\016(\t\r\f(\007\r\f*\006\013\n*\377\n\016&\007\007\007\007\204\n\020$\204\n\f \007\000\001\322\b\007\034\004\377\n\020&\200\200\200\200\006\000\001\322\006\005 \004\377\016\020*\200\200\200\200\377\f\022*\200\200\200\200\007\000\355\321\001\005\036\004\b\000\355\321\003\t\"\004\006\000\355\321\001\005\032\004\t\000\355\321\003\t&\004\b\017\016(\t\r\f(\007\r\f*\006\013\n*\377\n\016&\007\007\007\007\204\n\020$\204\n\f \007\000\001\322\b\007\034\004\377\n\020&\200\200\200\200\006\000\001\322\006\005 \004\377\016\020*\200\200\200\200\377\f\022*\200\200\200\200\007\000\355\321\001\005\036\004\b\000\355\321\003\t\"\004\006\000\355\321\001\005\032\004\t\000\355\321\003\t&\004\b\017\016(\t\r\f(\007\r\f*\006\013\n*\377\n\016&\007\007\007\007\204\n\020$\204\n\f \007\000\001\322\b\007\034\004\377\n\020&\200\200\200\200\006\000\001\322\006\005 \004\377\016\020*\200\200\200\200\377\f\022*\200\200\200\200\007\000\355\321\001\005\036\004\b\000\355\321\003\t\"\004\006\000\355\321\001\005\032\004\t\000\355\321\003\t&\004\b\017\016(\t\r\f(\007\r\f*\006\013\n*\377\n\016&\007\007\007\007\204\n\020$\204\n\f \007\000\001\322\b\007\034\004\377\n\020&\200\200\200\200\006\000\001\322\006\005 \004\377\016\020*\200\200\200\200\377\f\022*\200\200\200\200\007\000\355\321\001\005\036\004\b\000\355\321\003\t\"\004\006\000\355\321\001\005\032\004\t\000\355\321\003\t&\004\b\017\016(\t\r\f(\007\r\f*\006\013\n*\377\n\016&\007\007\007\007\204\n\020$\204\n\f \007\000\001\322\b\007\034\004\377\n\020&\200\200\200\200\006\000\001\322\006\005 \004\377\016\020*\200\200\200\200\377\f\022*\200\200\200\200\007\000\355\321\001\005\036\004\b\000\355\321\003\t\"\004\006\000\355\321\001\005\032\004\t\000\355\321\003\t&\004\b\017\016(\t\r\f(\007\r\f*\006\013\n*\377\n\016&\007\007\007\007\204\n\020$\204\n\f \007\000\001\322\b\007\034\004\377\n\020&\200\200\200\200\006\000\001\322\006\005 \004\377\016\020*\200\200\200\200\377\f\022*\200\200\200\200\007\000\355\321\001\005\036\004\b\000\355\321\003\t\"\004\006\000\355\321\001\005\032\004\t\000\355\321\003\t&\004\b\017\016(\t\r\f(\007\r\f*\006\013\n*\377\n\016&\007\007\007\007\204\n\020$\204\n\f \007\000\001\322\b\007\034\004\377\n\020&\200\200\200\200\006\000\001\322\006\005 \004\377\016\020*\200\200\200\200\377\f\022*\200\200\200\200\007\000\355\321\001\005\036\004\b\000\355\321\003\t\"\004\006\000\355\321\001\005\032\004\t\000\355\321\003\t&\004\b\017\016(\t\r\f(\007\r\f*\006\013\n*\377\n\016&\007\007\007\007\204\n\020$\204\n\f \007\000\001\322\b\007\034\004\377\n\020&\200\200\200\200\006\000\001\322\006\005 \004\377\016\020*\200\200\200\200\377\f\022*\200\200\200\200\007\000\355\321\001\005\036\004\b\000\355\321\003\t\"\004\006\000\355\321\001\005\032\004\t\000\355\321\003\t&\004\b\017\016(\t\r\f(\007\r\f*\006\013\n*\377\n\016&\007\007\007\007\204\n\020$\204\n\f \007\000\001\322\b\007\034\004\377\n\020&\200\200\200\200\006\000\001\322\006\005 \004\377\016\020*\200\200\200\200\377\f\022*\200\200\200\200\007\000\355\321\001\005\036\004\b\000\355\321\003\t\"\004\006\000\355\321\001\005\032\004\t\000\355\321\003\t&\004\b\017\016(\t\r\f(\007\r\f*\006\013\n*\377\n\016&\007\007\007\007\204\n\020$\204\n\f \007\000\001\322\b\007\034\004\377\n\020&\200\200\200\200\006\000\001\322\006\005 \004\377\016\020*\200\200\200\200\377\f\022*\200\200\200\200\007\000\355\321\001\005\036\004\b\000\355\321\003\t\"\004\006\000\355\321\001\005\032\004\t\000\355\321\003\t&\004\b\017\016(\t\r\f(\007\r\f*\006\013\n*\377\n\016&\007\007\007\007\204\n\020$\204\n\f \007\000\001\322\b\007\034\004\377\n\020&\200\200\200\200\006\000\001\322\006\005 \004\377\016\020*\200\200\200\200\377\f\022*\200\200\200\200\007\000\355\321\001\005\036\004\b\000\355\321\003\t\"\004\006\000\355\321\001\005\032\004\t\000\355\321\003\t&\004\b\017\016(\t\r\f(\007\r\f*\006\013\n*\377\n\016&\007\007\007\007\204\n\020$\204\n\f \007\000\001\322\b\007\034\004\377\n\020&\200\200\200\200\006\000\001\322\006\005 \004\377\016\020*\200\200\200\200\377\f\022*\200\200\200\200\007\000\355\321\001\005\036\004\b\000\355\321\003\t\"\004\006\000\355\321\001\005\032\004\t\000\355\321\003\t&\004\b\017\016(\t\r\f(\007\r\f*\006\013\n*\377\n\016&\007\007\007\007\204\n\020$\204\n\f \007\000\001\322\b\007\034\004\377\n\020&\200\200\200\200\006\000\001\322\006\005 \004\377\016\020*\200\200\200\200\377\f\022*\200\200\200\200\007\000\355\321\001\005\036\004\b\000\355\321\003\t\"\004\006\000\355\321\001\005\032\004\t\000\355\321\003\t&\004\b\017\016(\t\r\f(\007\r\f*\006\013\n*\377\n\016&\007\007\007\007\204\n\020$\204\n\f \007\000\001\322\b\007\034\004\377\n\020&\200\200\200\200\006\000\001\322\006\005 \004\377\016\020*\200\200\200\200\377\f\022*\200\200\200\200\007\000\355\321\001\005\036\004\b\000\355\321\003\t\"\004\006\000\355\321\001\005\032\004\t\000\355\321\003\t&\004\b\017\016(\t\r\f(\007\r\f*\006\013\n*\377\n\016&\007\007\007\007\204\n\020$\204\n\f \007\000\001\322\b\007\034\004\377\n\020&\200\200\200\200\006\000\001\322\006\005 \004\377\016\020*\200\200\200\200\377\f\022*\200\200\200\200\007\000\355\321\001\005\036\004\b\000\355\321\003\t\"\004\006\000\355\321\001\005\032\004\t\000\355\321\003\t&\004\b\017\016(\t\r\f(\007\r\f*\006\013\n*\377\n\016&\007\007\007\007\204\n\020$\204\n\f \007\000\001\322\b\007\034\004\377\n\020&\200\200\200\200\006\000\001\322\006\005 \004\377\016\020*\200\200\200\200\377\f\022*\200\200\200\200\007\000\355\321\001\005\036\004\b\000\355\321\003\t\"\004\006\000\355\321\001\005\032\004\t\000\355\321\003\t&\004\b\017\016(\t\r\f(\007\r\f*\006\013\n*\377\n\016&\007\007\007\007\204\n\020$\204\n\f \007\000\001\322\b\007\034\004\377\n\020&\200\200\200\200\006\000\001\322\006\005 \004\377\016\020*\200\200\200\200\377\f\022*\200\200\200\200\007\000\355\321\001\005\036\004\b\000\355\321\003\t\"\004\006\000\355\321\001\005\032\004\t\000\355\321\003\t&\004\b\017\016(\t\r\f(\007\r\f*\006\013\n*\377\n\016&\007\007\007\007\204\n\020$\204\n\f \007\000\001\322\b\007\034\004\377\n\020&\200\200\200\200\006\000\001\322\006\005 \004\377\016\020*\200\200\200\200\377\f\022*\200\200\200\200\007\000\355\321\001\005\036\004\b\000\355\321\003\t\"\004\006\000\355\321\001\005\032\004\t\000\355\321\003\t&\004\b\017\016(\t\r\f(\007\r\f*\006\013\n*\377\n\016&\007\007\007\007\204\n\020$\204\n\f \007\000\001\322\b\007\034\004\377\n\020&\200\200\200\200\006\000\001\322\006\005 \004\377\016\020*\200\200\200\200\377\f\022*\200\200\200\200\007\000\355\321\001\005\036\004\b\000\355\321\003\t\"\004\006\000\355\321\001\005\032\004\t\000\355\321\003\t&\004\b\017\016(\t\r\f(\007\r\f*\006\013\n*\377\n\016&\007\007\007\007\204\n\020$\204\n\f \007\000\001\322\b\007\034\004\377\n\020&\200\200\200\200\006\000\001\322\006\005 \004\377\016\020*\200\200\200\200\377\f\022*\200\200\200\200\007\000\355\321\001\005\036\004\b\000\355\321\003\t\"\004\006\000\355\321\001\005\032\004\t\000\355\321\003\t&\004\b\017\016(\t\r\f(\007\r\f*\006\013\n*\377\n\016&\007\007\007\007\204\n\020$\204\n\f \007\000\001\322\b\007\034\004\377\n\020&\200\200\200\200\006\000\001\322\006\005 \004\377\016\020*\200\200\200\200\377\f\022*\200\200\200\200\007\000\355\321\001\005\036\004\b\000\355\321\003\t\"\004\006\000\355\321\001\005\032\004\t\000\355\321\003\t&\004\b\017\016(\t\r\f(\007\r\f*\006\013\n*\377\n\016&\007\007\007\007\204\n\020$\204\n\f \007\000\001\322\b\007\034\004\377\n\020&\200\200\200\200\006\000\001\322\006\005 \004\377\016\020*\200\200\200\200\377\f\022*\200\200\200\200\007\000\355\321\001\005\036\004\b\000\355\321\003\t\"\004\006\000\355\321\001\005\032\004\t\000\355\321\003\t&\004\b\017\016(\t\r\f(\007\r\f*\006\013\n*\377\n\016&\007\007\007\007\204\n\020$\204\n\f \007\000\001\322\b\007\034\004\377\n\020&\200\200\200\200\006\000\001\322\006\005 \004\377\016\020*\200\200\200\200\377\f\022*\200\200\200\200\007\000\355\321\001\005\036\004\b\000\355\321\003\t\"\004\006\000\355\321\001\005\032\004\t\000\355\321\003\t&\004\b\017\016(\t\r\f(\007\r\f*\006\013\n*\377\n\016&\007\007\007\007\204\n\020$\204\n\f \007\000\001\322\b\007\034\004\377\n\020&\200\200\200\200\006\000\001\322\006\005 \004\377\016\020*\200\200\200\200\377\f\022*\200\200\200\200\007\000\355\321\001\005\036\004\b\000\355\321\003\t\"\004\006\000\355\321\001\005\032\004\t\000\355\321\003\t&\004\b\017\016(\t\r\f(\007\r\f*\006\013\n*\377\n\016&\007\007\007\007\204\n\020$\204\n\f \007\000\001\322\b\007\034\004\377\n\020&\200\200\200\200\006\000\001\322\006\005 \004\377\016\020*\200\200\200\200\377\f\022*\200\200\200\200\007\000\355\321\001\005\036\004\b\000\355\321\003\t\"\004\006\000\355\321\001\005\032\004\t\000\355\321\003\t&\004\b\017\016(\t\r\f(\007\r\f*\006\013\n*\377\n\016&\007\007\007\007\204\n\020$\204\n\f \007\000\001\322\b\007\034\004\377\n\020&\200\200\200\200\006\000\001\322\006\005 \004\377\016\020*\200\200\200\200\377\f\022*\200\200\200\200\007\000\355\321\001\005\036\004\b\000\355\321\003\t\"\004\006\000\355\321\001\005\032\004\t\000\355\321\003\t&\004\b\017\016(\t\r\f(\007\r\f*\006\013\n*\377\n\016&\007\007\007\007\204\n\020$\204\n\f \007\000\001\322\b\007\034\004\377\n\020&\200\200\200\200\006\000\001\322\006\005 \004\377\016\020*\200\200\200\200\377\f\022*\200\200\200\200\007\000\355\321\001\005\036\004\b\000\355\321\003\t\"\004\006\000\355\321\001\005\032\004\t\000\355\321\003\t&\004\b\017\016(\t\r\f(\007\r\f*\006\013\n*\377\n\016&\007\007\007\007\204\n\020$\204\n\f \007\000\001\322\b\007\034\004\377\n\020&\200\200\200\200\006\000\001\322\006\005 \004\377\016\020*\200\200\200\200\377\f\022*\200\200\200\200\007\000\355\321\001\005\036\004\b\000\355\321\003\t\"\004\006\000\355\321\001\005\032\004\t\000\355\321\003\t&\004\b\017\016(\t\r\f(\007\r\f*\006\013\n*\377\n\016&\007\007\007\007\204\n\020$\204\n\f \007\000\001\322\b\007\034\004\377\n\020&\200\200\200\200\006\000\001\322\006\005 \004\377\016\020*\200\200\200\200\377\f\022*\200\200\200\200\007\000\355\321\001\005\036\004\b\000\355\321\003\t\"\004\006\000\355\321\001\005\032\004\t\000\355\321\003\t&\004\b\017\016(\t\r\f(\007\r\f*\006\013\n*\377\n\016&\007\007\007\007\204\n\020$\204\n\f \007\000\001\322\b\007\034\004\377\n\020&\200\200\200\200\006\000\001\322\006\005 \004\377\016\020*\200\200\200\200\377\f\022*\200\200\200\200\007\000\355\321\001\005\036\004\b\000\355\321\003\t\"\004\006\000\355\321\001\005\032\004\t\000\355\321\003\t&\004\b\017\016(\t\r\f(\007\r\f*\006\013\n*\377\n\016&\007\007\007\007\204\n\020$\204\n\f \007\000\001\322\b\007\034\004\377\n\020&\200\200\200\200\006\000\001\322\006\005 \004\377\016\020*\200\200\200\200\377\f\022*\200\200\200\200\007\000\355\321\001\005\036\004\b\000\355\321\003\t\"\004\006\000\355\321\001\005\032\004\t\000\355\321\003\t&\004\b\017\016(\t\r\f(\007\r\f*\006\013\n*\377\n\016&\007\007\007\007\204\n\020$\204\n\f \007\000\001\322\b\007\034\004\377\n\020&\200\200\200\200\006\000\001\322\006\005 \004\377\016\020*\200\200\200\200\377\f\022*\200\200\200\200\007\000\355\321\001\005\036\004\b\000\355\321\003\t\"\004\006\000\355\321\001\005\032\004\t\000\355\321\003\t&\004\b\017\016(\t\r\f(\007\r\f*\006\013\n*\377\n\016&\007\007\007\007\204\n\020$\204\n\f \007\000\001\322\b\007\034\004\377\n\020&\200\200\200\200\006\000\001\322\006\005 \004\377\016\020*\200\200\200\200\377\f\022*\200\200\200\200\007\000\355\321\001\005\036\004\b\000\355\321\003\t\"\004\006\000\355\321\001\005\032\004\t\000\355\321\003\t&\004\b\017\016(\t\r\f(\007\r\f*\006\013\n*\377\n\016&\007\007\007\007\204\n\020$\204\n\f \007\000\001\322\b\007\034\004\377\n\020&\200\200\200\200\006\000\001\322\006\005 \004\377\016\020*\200\200\200\200\377\f\022*\200\200\200\200\007\000\355\321\001\005\036\004\b\000\355\321\003\t\"\004\006\000\355\321\001\005\032\004\t\000\355\321\003\t&\004\b\017\016(\t\r\f(\007\r\f*\006\013\n*\377\n\016&\007\007\007\007\204\n\020$\204\n\f \007\000\001\322\b\007\034\004\377\n\020&\200\200\200\200\006\000\001\322\006\005 \004\377\016\020*\200\200\200\200\377\f\022*\200\200\200\200\007\000\355\321\001\005\036\004\b\000\355\321\003\t\"\004\006\000\355\321\001\005\032\004\t\000\355\321\003\t&\004\b\017\016(\t\r\f(\007\r\f*\006\013\n*\377\n\016&\007\007\007\007\204\n\020$\204\n\f \007\000\001\322\b\007\034\004\377\n\020&\200\200\200\200\006\000\001\322\006\005 \004\377\016\020*\200\200\200\200\377\f\022*\200\200\200\200\007\000\355\321\001\005\036\004\b\000\355\321\003\t\"\004\006\000\355\321\001\005\032\004\t\000\355\321\003\t&\004\b\017\016(\t\r\f(\007\r\f*\006\013\n*\377\n\016&\007\007\007\007\204\n\020$\204\n\f \007\000\001\322\b\007\034\004\377\n\020&\200\200\200\200\006\000\001\322\006\005 \004\377\016\020*\200\200\200\200\377\f\022*\200\200\200\200\007\000\355\321\001\005\036\004\b\000\355\321\003\t\"\004\006\000\355\321\001\005\032\004\t\000\355\321\003\t&\004\b\017\016(\t\r\f(\007\r\f*\006\013\n*\377\n\016&\007\007\007\007\204\n\020$\204\n\f \007\000\001\322\b\007\034\004\377\n\020&\200\200\200\200\006\000\001\322\006\005 \004\377\016\020*\200\200\200\200\377\f\022*\200\200\200\200\007\000\355\321\001\005\036\004\b\000\355\321\003\t\"\004\006\000\355\321\001\005\032\004\t\000\355\321\003\t&\004\b\017\016(\t\r\f(\007\r\f*\006\013\n*\377\n\016&\007\007\007\007\204\n\020$\204\n\f \007\000\001\322\b\007\034\004\377\n\020&\200\200\200\200\006\000\001\322\006\005 \004\377\016\020*\200\200\200\200\377\f\022*\200\200\200\200\007\000\355\321\001\005\036\004\b\000\355\321\003\t\"\004\006\000\355\321\001\005\032\004\t\000\355\321\003\t&\004\b\017\016(\t\r\f(\007\r\f*\006\013\n*\377\n\016&\007\007\007\007\204\n\020$\204\n\f \007\000\001\322\b\007\034\004\377\n\020&\200\200\200\200\006\000\001\322\006\005 \004\377\016\020*\200\200\200\200\377\f\022*\200\200\200\200\007\000\355\321\001\005\036\004\b\000\355\321\003\t\"\004\006\000\355\321\001\005\032\004\t\000\355\321\003\t&\004\b\017\016(\t\r\f(\007\r\f*\006\013\n*\377\n\016&\007\007\007\007\204\n\020$\204\n\f \007\000\001\322\b\007\034\004\377\n\020&\200\200\200\200\006\000\001\322\006\005 \004\377\016\020*\200\200\200\200\377\f\022*\200\200\200\200\007\000\355\321\001\005\036\004\b\000\355\321\003\t\"\004\006\000\355\321\001\005\032\004\t\000\355\321\003\t&\004\b\017\016(\t\r\f(\007\r\f*\006\013\n*\377\n\016&\007\007\007\007\204\n\020$\204\n\f \007\000\001\322\b\007\034\004\377\n\020&\200\200\200\200\006\000\001\322\006\005 \004\377\016\020*\200\200\200\200\377\f\022*\200\200\200\200\007\000\355\321\001\005\036\004\b\000\355\321\003\t\"\004\006\000\355\321\001\005\032\004\t\000\355\321\003\t&\004\b\017\016(\t\r\f(\007\r\f*\006\013\n*\377\n\016&\007\007\007\007\204\n\020$\204\n\f \007\000\001\322\b\007\034\004\377\n\020&\200\200\200\200\006\000\001\322\006\005 \004\377\016\020*\200\200\200\200\377\f\022*\200\200\200\200\007\000\355\321\001\005\036\004\b\000\355\321\003\t\"\004\006\000\355\321\001\005\032\004\t\000\355\321\003\t&\004\b\017\016(\t\r\f(\007\r\f*\006\013\n*\377\n\016&\007\007\007\007\204\n\020$\204\n\f \007\000\001\322\b\007\034\004\377\n\020&\200\200\200\200\006\000\001\322\006\005 \004\377\016\020*\200\200\200\200\377\f\022*\200\200\200\200\007\000\355\321\001\005\036\004\b\000\355\321\003\t\"\004\006\000\355\321\001\005\032\004\t\000\355\321\003\t&\004\b\017\016(\t\r\f(\007\r\f*\006\013\n*\377\n\016&\007\007\007\007\204\n\020$\204\n\f \007\000\001\322\b\007\034\004\377\n\020&\200\200\200\200\006\000\001\322\006\005 \004\377\016\020*\200\200\200\200\377\f\022*\200\200\200\200\007\000\355\321\001\005\036\004\b\000\355\321\003\t\"\004\006\000\355\321\001\005\032\004\t\000\355\321\003\t&\004\b\017\016(\t\r\f(\007\r\f*\006\013\n*\377\n\016&\007\007\007\007\204\n\020$\204\n\f \007\000\001\322\b\007\034\004\377\n\020&\200\200\200\200\006\000\001\322\006\005 \004\377\016\020*\200\200\200\200\377\f\022*\200\200\200\200\007\000\355\321\001\005\036\004\b\000\355\321\003\t\"\004\006\000\355\321\001\005\032\004\t\000\355\321\003\t&\004\b\017\016(\t\r\f(\007\r\f*\006\013\n*\377\n\016&\007\007\007\007\204\n\020$\204\n\f \007\000\001\322\b\007\034\004\377\n\020&\200\200\200\200\006\000\001\322\006\005 \004\377\016\020*\200\200\200\200\377\f\022*\200\200\200\200\007\000\355\321\001\005\036\004\b\000\355\321\003\t\"\004\006\000\355\321\001\005\032\004\t\000\355\321\003\t&\004\b\017\016(\t\r\f(\007\r\f*\006\013\n*\377\n\016&\007\007\007\007\204\n\020$\204\n\f \007\000\001\322\b\007\034\004\377\n\020&\200\200\200\200\006\000\001\322\006\005 \004\377\016\020*\200\200\200\200\377\f\022*\200\200\200\200\007\000\355\321\001\005\036\004\b\000\355\321\003\t\"\004\006\000\355\321\001\005\032\004\t\000\355\321\003\t&\004\b\017\016(\t\r\f(\007\r\f*\006\013\n*\377\n\016&\007\007\007\007\204\n\020$\204\n\f \007\000\001\322\b\007\034\004\377\n\020&\200\200\200\200\006\000\001\322\006\005 \004\377\016\020*\200\200\200\200\377\f\022*\200\200\200\200\007\000\355\321\001\005\036\004\b\000\355\321\003\t\"\004\006\000\355\321\001\005\032\004\t\000\355\321\003\t&\004\b\017\016(\t\r\f(\007\r\f*\006\013\n*\377\n\016&\007\007\007\007\204\n\020$\204\n\f \007\000\001\322\b\007\034\004\377\n\020&\200\200\200\200\006\000\001\322\006\005 \004\377\016\020*\200\200\200\200\377\f\022*\200\200\200\200\007\000\355\321\001\005\036\004\b\000\355\321\003\t\"\004\006\000\355\321\001\005\032\004\t\000\355\321\003\t&\004\b\017\016(\t\r\f(\007\r\f*\006\013\n*\377\n\016&\007\007\007\007\204\n\020$\204\n\f \007\000\001\322\b\007\034\004\377\n\020&\200\200\200\200\006\000\001\322\006\005 \004\377\016\020*\200\200\200\200\377\f\022*\200\200\200\200\007\000\355\321\001\005\036\004\b\000\355\321\003\t\"\004\006\000\355\321\001\005\032\004\t\000\355\321\003\t&\004\b\017\016(\t\r\f(\007\r\f*\006\013\n*\377\n\016&\007\007\007\007\204\n\020$\204\n\f \007\000\001\322\b\007\034\004\377\n\020&\200\200\200\200\006\000\001\322\006\005 \004\377\016\020*\200\200\200\200\377\f\022*\200\200\200\200\007\000\355\321\001\005\036\004\b\000\355\321\003\t\"\004\006\000\355\321\001\005\032\004\t\000\355\321\003\t&\004\b\017\016(\t\r\f(\007\r\f*\006\013\n*\377\n\016&\007\007\007\007\204\n\020$\204\n\f \007\000\001\322\b\007\034\004\377\n\020&\200\200\200\200\006\000\001\322\006\005 \004\377\016\020*\200\200\200\200\377\f\022*\200\200\200\200\007\000\355\321\001\005\036\004\b\000\355\321\003\t\"\004\006\000\355\321\001\005\032\004\t\000\355\321\003\t&\004\b\017\016(\t\r\f(\007\r\f*\006\013\n*\377\n\016&\007\007\007\007\204\n\020$\204\n\f \007\000\001\322\b\007\034\004\377\n\020&\200\200\200\200\006\000\001\322\006\005 \004\377\016\020*\200\200\200\200\377\f\022*\200\200\200\200\007\000\355\321\001\005\036\004\b\000\355\321\003\t\"\004\006\000\355\321\001\005\032\004\t\000\355\321\003\t&\004\b\017\016(\t\r\f(\007\r\f*\006\013\n*\377\n\016&\007\007\007\007\204\n\020$\204\n\f \007\000\001\322\b\007\034\004\377\n\020&\200\200\200\200\006\000\001\322\006\005 \004\377\016\020*\200\200\200\200\377\f\022*\200\200\200\200\007\000\355\321\001\005\036\004\b\000\355\321\003\t\"\004\006\000\355\321\001\005\032\004\t\000\355\321\003\t&\004\b\017\016(\t\r\f(\007\r\f*\006\013\n*\377\n\016&\007\007\007\007\204\n\020$\204\n\f \007\000\001\322\b\007\034\004\377\n\020&\200\200\200\200\006\000\001\322\006\005 \004\377\016\020*\200\200\200\200\377\f\022*\200\200\200\200\007\000\355\321\001\005\036\004\b\000\355\321\003\t\"\004\006\000\355\321\001\005\032\004\t\000\355\321\003\t&\004\b\017\016(\t\r\f(\007\r\f*\006\013\n*\377\n\016&\007\007\007\007\204\n\020$\204\n\f \007\000\001\322\b\007\034\004\377\n\020&\200\200\200\200\006\000\001\322\006\005 \004\377\016\020*\200\200\200\200\377\f\022*\200\200\200\200\007\000\355\321\001\005\036\004\b\000\355\321\003\t\"\004\006\000\355\321\001\005\032\004\t\000\355\321\003\t&\004\b\017\016(\t\r\f(\007\r\f*\006\013\n*\377\n\016&\007\007\007\007\204\n\020$\204\n\f \007\000\001\322\b\007\034\004\377\n\020&\200\200\200\200\006\000\001\322\006\005 \004\377\016\020*\200\200\200\200\377\f\022*\200\200\200\200\007\000\355\321\001\005\036\004\b\000\355\321\003\t\"\004\006\000\355\321\001\005\032\004\t\000\355\321\003\t&\004\b\017\016(\t\r\f(\007\r\f*\006\013\n*\377\n\016&\007\007\007\007\204\n\020$\204\n\f \007\000\001\322\b\007\034\004\377\n\020&\200\200\200\200\006\000\001\322\006\005 \004\377\016\020*\200\200\200\200\377\f\022*\200\200\200\200\007\000\355\321\001\005\036\004\b\000\355\321\003\t\"\004\006\000\355\321\001\005\032\004\t\000\355\321\003\t&\004\b\017\016(\t\r\f(\007\r\f*\006\013\n*\377\n\016&\007\007\007\007\204\n\020$\204\n\f \007\000\001\322\b\007\034\004\377\n\020&\200\200\200\200\006\000\001\322\006\005 \004\377\016\020*\200\200\200\200\377\f\022*\200\200\200\200\007\000\355\321\001\005\036\004\b\000\355\321\003\t\"\004\006\000\355\321\001\005\032\004\t\000\355\321\003\t&\004\b\017\016(\t\r\f(\007\r\f*\006\013\n*\377\n\016&\007\007\007\007\204\n\020$\204\n\f \007\000\001\322\b\007\034\004\377\n\020&\200\200\200\200\006\000\001\322\006\005 \004\377\016\020*\200\200\200\200\377\f\022*\200\200\200\200\007\000\355\321\001\005\036\004\b\000\355\321\003\t\"\004\006\000\355\321\001\005\032\004\t\000\355\321\003\t&\004\b\017\016(\t\r\f(\007\r\f*\006\013\n*\377\n\016&\007\007\007\007\204\n\020$\204\n\f \007\000\001\322\b\007\034\004\377\n\020&\200\200\200\200\006\000\001\322\006\005 \004\377\016\020*\200\200\200\200\377\f\022*\200\200\200\200\007\000\355\321\001\005\036\004\b\000\355\321\003\t\"\004\006\000\355\321\001\005\032\004\t\000\355\321\003\t&\004\b\017\016(\t\r\f(\007\r\f*\006\013\n*\377\n\016&\007\007\007\007\204\n\020$\204\n\f \007\000\001\322\b\007\034\004\377\n\020&\200\200\200\200\006\000\001\322\006\005 \004\377\016\020*\200\200\200\200\377\f\022*\200\200\200\200\007\000\355\321\001\005\036\004\b\000\355\321\003\t\"\004\006\000\355\321\001\005\032\004\t\000\355\321\003\t&\004\b\017\016(\t\r\f(\007\r\f*\006\013\n*\377\n\016&\007\007\007\007\204\n\020$\204\n\f \007\000\001\322\b\007\034\004\377\n\020&\200\200\200\200\006\000\001\322\006\005 \004\377\016\020*\200\200\200\200\377\f\022*\200\200\200\200\007\000\355\321\001\005\036\004\b\000\355\321\003\t\"\004\006\000\355\321\001\005\032\004\t\000\355\321\003\t&\004\b\017\016(\t\r\f(\007\r\f*\006\013\n*\377\n\016&\007\007\007\007\204\n\020$\204\n\f \007\000\001\322\b\007\034\004\377\n\020&\200\200\200\200\006\000\001\322\006\005 \004\377\016\020*\200\200\200\200\377\f\022*\200\200\200\200\007\000\355\321\001\005\036\004\b\000\355\321\003\t\"\004\006\000\355\321\001\005\032\004\t\000\355\321\003\t&\004\b\017\016(\t\r\f(\007\r\f*\006\013\n*\377\n\016&\007\007\007\007\204\n\020$\204\n\f \007\000\001\322\b\007\034\004\377\n\n&\200\200\200\200\005\000\001\322\006\005\024\004\377\016\f*\200\200\200\200\377\n\020*\200\200\200\200\007\000\355\321\001\005\036\004\006\000\355\321\003\t\032\004\002\000\355\321\001\005\026\004\003\000\355\321\003\t\"\004\003\005\004(\201\000\006$\237\006\b\"\003\000\217\322\202\006\002\000\001\002\000~\000\006\0062\006\017\002(\000\t\b8\000\200t\334\003\001\177\000\000\000\201\277\000\000\200\277\000\000\200\277\000\000\200\277\000\000\200\277\000\000\200\277\000\000\200\277\000\000\200\277\000\000\200\277\000\000\200\277\000\000\200\277\000\000\200\277\000\000\200\277\000\000\200\277\000\000\200\277\000\000\200\277\000\000\200\277\000\000\200\277\000\000\200\277\000\000\200\277\000\000\200\277\000\000\200\277\000\000\200\277\000\000\200\277\000\000\200\277\000\000\200\277\000\000\200\277\000\000\200\277\000\000\200\277\000\000\200\277\000\000\200\277\000\000\200\277\000\000\200\277\000\000\200\277\000\000\200\277\000\000\200\277\000\000\200\277\000\000\200\277\000\000\200\277\000\000\200\277\000\000\200\277\000\000\200\277\000\000\200\277\000\000\200\277\000\000\200\277\002\000\002\300$\000\000\000B\000\002\300\020\000\000\000\177\300\214\277\000\377\000\206\377\377\000\000\006\000\006\222\006\000\000h\001\000\210}j \200\276o\013\210\277\002\000\n\300\000\000\000\000\237\000\002\"\001\000\217\322\202\000\002\000\377\002\b~\000\377\376\375\177\300\214\277\003\002\006~\002\002\0022\003\005\0048\000\200P\334\001\000\177\005\377\002\002~\004\006\b\f\377\002\004~\000\001\002\003\377\002\006~\374\372\370\364p\017\214\277\204\n\f \377\n\016&\007\007\007\007\201\n\020 \205\n\022 \377\f\f&\007\007\007\007\n\000\355\321\001\005\036\004\377\020\020&\004\004\004\004\377\022\022&\004\004\004\004\013\000\355\321\001\005\032\004\007\000\355\321\003\t\036\004\006\000\355\321\003\t\032\004\377\020\020(\000\001\002\003\377\022\022(\000\001\002\003\007\000\355\321\007\025\"\004\006\000\355\321\006\027&\004\007\r\f*\006\013\n*\204\n\f \377\n\016&\007\007\007\007\201\n\020 \205\n\022 \377\f\f&\007\007\007\007\n\000\355\321\001\005\036\004\377\020\020&\004\004\004\004\377\022\022&\004\004\004\004\013\000\355\321\001\005\032\004\007\000\355\321\003\t\036\004\006\000\355\321\003\t\032\004\377\020\020(\000\001\002\003\377\022\022(\000\001\002\003\007\000\355\321\007\025\"\004\006\000\355\321\006\027&\004\007\r\f*\006\013\n*\204\n\f \377\n\016&\007\007\007\007\201\n\020 \205\n\022 \377\f\f&\007\007\007\007\n\000\355\321\001\005\036\004\377\020\020&\004\004\004\004\377\022\022&\004\004\004\004\013\000\355\321\001\005\032\004\007\000\355\321\003\t\036\004\006\000\355\321\003\t\032\004\377\020\020(\000\001\002\003\377\022\022(\000\001\002\003\007\000\355\321\007\025\"\004\006\000\355\321\006\027&\004\007\r\f*\006\013\n*\204\n\f \377\n\016&\007\007\007\007\201\n\020 \205\n\022 \377\f\f&\007\007\007\007\n\000\355\321\001\005\036\004\377\020\020&\004\004\004\004\377\022\022&\004\004\004\004\013\000\355\321\001\005\032\004\007\000\355\321\003\t\036\004\006\000\355\321\003\t\032\004\377\020\020(\000\001\002\003\377\022\022(\000\001\002\003\007\000\355\321\007\025\"\004\006\000\355\321\006\027&\004\007\r\f*\006\013\n*\204\n\f \377\n\016&\007\007\007\007\201\n\020 \205\n\022 \377\f\f&\007\007\007\007\n\000\355\321\001\005\036\004\377\020\020&\004\004\004\004\377\022\022&\004\004\004\004\013\000\355\321\001\005\032\004\007\000\355\321\003\t\036\004\006\000\355\321\003\t\032\004\377\020\020(\000\001\002\003\377\022\022(\000\001\002\003\007\000\355\321\007\025\"\004\006\000\355\321\006\027&\004\007\r\f*\006\013\n*\204\n\f \377\n\016&\007\007\007\007\201\n\020 \205\n\022 \377\f\f&\007\007\007\007\n\000\355\321\001\005\036\004\377\020\020&\004\004\004\004\377\022\022&\004\004\004\004\013\000\355\321\001\005\032\004\007\000\355\321\003\t\036\004\006\000\355\321\003\t\032\004\377\020\020(\000\001\002\003\377\022\022(\000\001\002\003\007\000\355\321\007\025\"\004\006\000\355\321\006\027&\004\007\r\f*\006\013\n*\204\n\f \377\n\016&\007\007\007\007\201\n\020 \205\n\022 \377\f\f&\007\007\007\007\n\000\355\321\001\005\036\004\377\020\020&\004\004\004\004\013\000\355\321\001\005\032\004\007\000\355\321\003\t\036\004\006\000\355\321\003\t\032\004\377\022\022&\004\004\004\004\377\020\020(\000\001\002\003\377\022\022(\000\001\002\003\007\000\355\321\007\025\"\004\006\000\355\321\006\027&\004\007\r\f*\006\013\n*\204\n\f \377\n\016&\007\007\007\007\377\f\f&\007\007\007\007\201\n\024 \205\n\026 \b\000\355\321\001\005\036\004\t\000\355\321\001\005\032\004\007\000\355\321\003\t\036\004\006\000\355\321\003\t\032\004\377\024\024&\004\004\004\004\377\026\026&\004\004\004\004\377\024\024(\000\001\002\003\377\026\026(\000\001\002\003\007\000\355\321\007\021*\004\006\000\355\321\006\023.\004\007\r\f*\006\013\n*\204\n\f \377\n\016&\007\007\007\007\377\f\f&\007\007\007\007\201\n\024 \205\n\026 \b\000\355\321\001\005\036\004\t\000\355\321\001\005\032\004\007\000\355\321\003\t\036\004\006\000\355\321\003\t\032\004\377\024\024&\004\004\004\004\377\026\026&\004\004\004\004\377\024\024(\000\001\002\003\377\026\026(\000\001\002\003\007\000\355\321\007\021*\004\006\000\355\321\006\023.\004\007\r\f*\006\013\n*\204\n\f \377\n\016&\007\007\007\007\377\f\f&\007\007\007\007\201\n\024 \205\n\026 \b\000\355\321\001\005\036\004\t\000\355\321\001\005\032\004\007\000\355\321\003\t\036\004\006\000\355\321\003\t\032\004\377\024\024&\004\004\004\004\377\026\026&\004\004\004\004\377\024\024(\000\001\002\003\377\026\026(\000\001\002\003\007\000\355\321\007\021*\004\006\000\355\321\006\023.\004\007\r\f*\006\013\n*\204\n\f \377\n\016&\007\007\007\007\377\f\f&\007\007\007\007\201\n\024 \205\n\026 \b\000\355\321\001\005\036\004\t\000\355\321\001\005\032\004\007\000\355\321\003\t\036\004\006\000\355\321\003\t\032\004\377\024\024&\004\004\004\004\377\026\026&\004\004\004\004\377\024\024(\000\001\002\003\377\026\026(\000\001\002\003\007\000\355\321\007\021*\004\006\000\355\321\006\023.\004\007\r\f*\006\013\n*\204\n\f \377\n\016&\007\007\007\007\377\f\f&\007\007\007\007\201\n\024 \205\n\026 \b\000\355\321\001\005\036\004\t\000\355\321\001\005\032\004\007\000\355\321\003\t\036\004\006\000\355\321\003\t\032\004\377\024\024&\004\004\004\004\377\026\026&\004\004\004\004\377\024\024(\000\001\002\003\377\026\026(\000\001\002\003\007\000\355\321\007\021*\004\006\000\355\321\006\023.\004\007\r\f*\006\013\n*\204\n\f \377\n\016&\007\007\007\007\377\f\f&\007\007\007\007\201\n\024 \205\n\026 \b\000\355\321\001\005\036\004\t\000\355\321\001\005\032\004\007\000\355\321\003\t\036\004\006\000\355\321\003\t\032\004\377\024\024&\004\004\004\004\377\026\026&\004\004\004\004\377\024\024(\000\001\002\003\377\026\026(\000\001\002\003\007\000\355\321\007\021*\004\006\000\355\321\006\023.\004\007\r\f*\006\013\n*\204\n\f \377\n\016&\007\007\007\007\377\f\f&\007\007\007\007\201\n\024 \205\n\026 \b\000\355\321\001\005\036\004\t\000\355\321\001\005\032\004\007\000\355\321\003\t\036\004\006\000\355\321\003\t\032\004\377\024\024&\004\004\004\004\377\026\026&\004\004\004\004\377\024\024(\000\001\002\003\377\026\026(\000\001\002\003\007\000\355\321\007\021*\004\006\000\355\321\006\023.\004\007\r\f*\006\013\n*\204\n\f \377\n\016&\007\007\007\007\377\f\f&\007\007\007\007\201\n\024 \205\n\026 \b\000\355\321\001\005\036\004\t\000\355\321\001\005\032\004\007\000\355\321\003\t\036\004\006\000\355\321\003\t\032\004\377\024\024&\004\004\004\004\377\026\026&\004\004\004\004\377\024\024(\000\001\002\003\377\026\026(\000\001\002\003\007\000\355\321\007\021*\004\006\000\355\321\006\023.\004\007\r\f*\006\013\n*\204\n\f \377\n\016&\007\007\007\007\377\f\f&\007\007\007\007\201\n\024 \205\n\026 \b\000\355\321\001\005\036\004\t\000\355\321\001\005\032\004\007\000\355\321\003\t\036\004\006\000\355\321\003\t\032\004\377\024\024&\004\004\004\004\377\026\026&\004\004\004\004\377\024\024(\000\001\002\003\377\026\026(\000\001\002\003\007\000\355\321\007\021*\004\006\000\355\321\006\023.\004\007\r\f*\006\013\n*\204\n\f \377\n\016&\007\007\007\007\377\f\f&\007\007\007\007\201\n\024 \205\n\026 \b\000\355\321\001\005\036\004\t\000\355\321\001\005\032\004\007\000\355\321\003\t\036\004\006\000\355\321\003\t\032\004\377\024\024&\004\004\004\004\377\026\026&\004\004\004\004\377\024\024(\000\001\002\003\377\026\026(\000\001\002\003\007\000\355\321\007\021*\004\006\000\355\321\006\023.\004\007\r\f*\006\013\n*\204\n\f \377\n\016&\007\007\007\007\377\f\f&\007\007\007\007\201\n\024 \205\n\026 \b\000\355\321\001\005\036\004\t\000\355\321\001\005\032\004\007\000\355\321\003\t\036\004\006\000\355\321\003\t\032\004\377\024\024&\004\004\004\004\377\026\026&\004\004\004\004\377\024\024(\000\001\002\003\377\026\026(\000\001\002\003\007\000\355\321\007\021*\004\006\000\355\321\006\023.\004\007\r\f*\006\013\n*\204\n\f \377\n\016&\007\007\007\007\377\f\f&\007\007\007\007\201\n\024 \205\n\026 \b\000\355\321\001\005\036\004\t\000\355\321\001\005\032\004\007\000\355\321\003\t\036\004\006\000\355\321\003\t\032\004\377\024\024&\004\004\004\004\377\026\026&\004\004\004\004\377\024\024(\000\001\002\003\377\026\026(\000\001\002\003\007\000\355\321\007\021*\004\006\000\355\321\006\023.\004\007\r\f*\006\013\n*\204\n\f \377\n\016&\007\007\007\007\377\f\f&\007\007\007\007\201\n\024 \205\n\026 \b\000\355\321\001\005\036\004\t\000\355\321\001\005\032\004\007\000\355\321\003\t\036\004\006\000\355\321\003\t\032\004\377\024\024&\004\004\004\004\377\026\026&\004\004\004\004\377\024\024(\000\001\002\003\377\026\026(\000\001\002\003\007\000\355\321\007\021*\004\006\000\355\321\006\023.\004\007\r\f*\006\013\n*\204\n\f \377\n\016&\007\007\007\007\377\f\f&\007\007\007\007\201\n\024 \205\n\026 \b\000\355\321\001\005\036\004\t\000\355\321\001\005\032\004\007\000\355\321\003\t\036\004\006\000\355\321\003\t\032\004\377\024\024&\004\004\004\004\377\026\026&\004\004\004\004\377\024\024(\000\001\002\003\377\026\026(\000\001\002\003\007\000\355\321\007\021*\004\006\000\355\321\006\023.\004\007\r\f*\006\013\n*\204\n\f \377\n\016&\007\007\007\007\377\f\f&\007\007\007\007\201\n\024 \205\n\026 \b\000\355\321\001\005\036\004\t\000\355\321\001\005\032\004\007\000\355\321\003\t\036\004\006\000\355\321\003\t\032\004\377\024\024&\004\004\004\004\377\026\026&\004\004\004\004\377\024\024(\000\001\002\003\377\026\026(\000\001\002\003\007\000\355\321\007\021*\004\006\000\355\321\006\023.\004\007\r\f*\006\013\n*\204\n\f \377\n\016&\007\007\007\007\377\f\f&\007\007\007\007\201\n\024 \205\n\026 \b\000\355\321\001\005\036\004\t\000\355\321\001\005\032\004\007\000\355\321\003\t\036\004\006\000\355\321\003\t\032\004\377\024\024&\004\004\004\004\377\026\026&\004\004\004\004\377\024\024(\000\001\002\003\377\026\026(\000\001\002\003\007\000\355\321\007\021*\004\006\000\355\321\006\023.\004\007\r\f*\006\013\n*\204\n\f \377\n\016&\007\007\007\007\377\f\f&\007\007\007\007\201\n\024 \205\n\026 \b\000\355\321\001\005\036\004\t\000\355\321\001\005\032\004\007\000\355\321\003\t\036\004\006\000\355\321\003\t\032\004\377\024\024&\004\004\004\004\377\026\026&\004\004\004\004\377\024\024(\000\001\002\003\377\026\026(\000\001\002\003\007\000\355\321\007\021*\004\006\000\355\321\006\023.\004\007\r\f*\006\013\n*\204\n\f \377\n\016&\007\007\007\007\377\f\f&\007\007\007\007\201\n\024 \205\n\026 \b\000\355\321\001\005\036\004\t\000\355\321\001\005\032\004\007\000\355\321\003\t\036\004\006\000\355\321\003\t\032\004\377\024\024&\004\004\004\004\377\026\026&\004\004\004\004\377\024\024(\000\001\002\003\377\026\026(\000\001\002\003\007\000\355\321\007\021*\004\006\000\355\321\006\023.\004\007\r\f*\006\013\n*\204\n\f \377\n\016&\007\007\007\007\377\f\f&\007\007\007\007\201\n\024 \205\n\026 \b\000\355\321\001\005\036\004\t\000\355\321\001\005\032\004\007\000\355\321\003\t\036\004\006\000\355\321\003\t\032\004\377\024\024&\004\004\004\004\377\026\026&\004\004\004\004\377\024\024(\000\001\002\003\377\026\026(\000\001\002\003\007\000\355\321\007\021*\004\006\000\355\321\006\023.\004\007\r\f*\006\013\n*\204\n\f \377\n\016&\007\007\007\007\377\f\f&\007\007\007\007\201\n\024 \205\n\026 \b\000\355\321\001\005\036\004\t\000\355\321\001\005\032\004\007\000\355\321\003\t\036\004\006\000\355\321\003\t\032\004\377\024\024&\004\004\004\004\377\026\026&\004\004\004\004\377\024\024(\000\001\002\003\377\026\026(\000\001\002\003\007\000\355\321\007\021*\004\006\000\355\321\006\023.\004\007\r\f*\006\013\n*\204\n\f \377\n\016&\007\007\007\007\377\f\f&\007\007\007\007\201\n\024 \205\n\026 \b\000\355\321\001\005\036\004\t\000\355\321\001\005\032\004\007\000\355\321\003\t\036\004\006\000\355\321\003\t\032\004\377\024\024&\004\004\004\004\377\026\026&\004\004\004\004\377\024\024(\000\001\002\003\377\026\026(\000\001\002\003\007\000\355\321\007\021*\004\006\000\355\321\006\023.\004\007\r\f*\006\013\n*\204\n\f \377\n\016&\007\007\007\007\377\f\f&\007\007\007\007\201\n\024 \205\n\026 \b\000\355\321\001\005\036\004\t\000\355\321\001\005\032\004\007\000\355\321\003\t\036\004\006\000\355\321\003\t\032\004\377\024\024&\004\004\004\004\377\026\026&\004\004\004\004\377\024\024(\000\001\002\003\377\026\026(\000\001\002\003\007\000\355\321\007\021*\004\006\000\355\321\006\023.\004\007\r\f*\006\013\n*\204\n\f \377\n\016&\007\007\007\007\377\f\f&\007\007\007\007\201\n\024 \205\n\026 \b\000\355\321\001\005\036\004\t\000\355\321\001\005\032\004\007\000\355\321\003\t\036\004\006\000\355\321\003\t\032\004\377\024\024&\004\004\004\004\377\026\026&\004\004\004\004\377\024\024(\000\001\002\003\377\026\026(\000\001\002\003\007\000\355\321\007\021*\004\006\000\355\321\006\023.\004\007\r\f*\006\013\n*\204\n\f \377\n\016&\007\007\007\007\377\f\f&\007\007\007\007\201\n\024 \205\n\026 \b\000\355\321\001\005\036\004\t\000\355\321\001\005\032\004\007\000\355\321\003\t\036\004\006\000\355\321\003\t\032\004\377\024\024&\004\004\004\004\377\026\026&\004\004\004\004\377\024\024(\000\001\002\003\377\026\026(\000\001\002\003\007\000\355\321\007\021*\004\006\000\355\321\006\023.\004\007\r\f*\006\013\n*\204\n\f \377\n\016&\007\007\007\007\377\f\f&\007\007\007\007\201\n\024 \205\n\026 \b\000\355\321\001\005\036\004\t\000\355\321\001\005\032\004\007\000\355\321\003\t\036\004\006\000\355\321\003\t\032\004\377\024\024&\004\004\004\004\377\026\026&\004\004\004\004\377\024\024(\000\001\002\003\377\026\026(\000\001\002\003\007\000\355\321\007\021*\004\006\000\355\321\006\023.\004\007\r\f*\006\013\n*\204\n\f \377\n\016&\007\007\007\007\377\f\f&\007\007\007\007\201\n\024 \205\n\026 \b\000\355\321\001\005\036\004\t\000\355\321\001\005\032\004\007\000\355\321\003\t\036\004\006\000\355\321\003\t\032\004\377\024\024&\004\004\004\004\377\026\026&\004\004\004\004\377\024\024(\000\001\002\003\377\026\026(\000\001\002\003\007\000\355\321\007\021*\004\006\000\355\321\006\023.\004\007\r\f*\006\013\n*\204\n\f \377\n\016&\007\007\007\007\377\f\f&\007\007\007\007\201\n\024 \205\n\026 \b\000\355\321\001\005\036\004\t\000\355\321\001\005\032\004\007\000\355\321\003\t\036\004\006\000\355\321\003\t\032\004\377\024\024&\004\004\004\004\377\026\026&\004\004\004\004\377\024\024(\000\001\002\003\377\026\026(\000\001\002\003\007\000\355\321\007\021*\004\006\000\355\321\006\023.\004\007\r\f*\006\013\n*\204\n\f \377\n\016&\007\007\007\007\377\f\f&\007\007\007\007\201\n\024 \205\n\026 \b\000\355\321\001\005\036\004\t\000\355\321\001\005\032\004\007\000\355\321\003\t\036\004\006\000\355\321\003\t\032\004\377\024\024&\004\004\004\004\377\026\026&\004\004\004\004\377\024\024(\000\001\002\003\377\026\026(\000\001\002\003\007\000\355\321\007\021*\004\006\000\355\321\006\023.\004\007\r\f*\006\013\n*\204\n\f \377\n\016&\007\007\007\007\377\f\f&\007\007\007\007\201\n\024 \205\n\026 \b\000\355\321\001\005\036\004\t\000\355\321\001\005\032\004\007\000\355\321\003\t\036\004\006\000\355\321\003\t\032\004\377\024\024&\004\004\004\004\377\026\026&\004\004\004\004\377\024\024(\000\001\002\003\377\026\026(\000\001\002\003\007\000\355\321\007\021*\004\006\000\355\321\006\023.\004\007\r\f*\006\013\n*\204\n\f \377\n\016&\007\007\007\007\377\f\f&\007\007\007\007\201\n\024 \205\n\026 \b\000\355\321\001\005\036\004\t\000\355\321\001\005\032\004\007\000\355\321\003\t\036\004\006\000\355\321\003\t\032\004\377\024\024&\004\004\004\004\377\026\026&\004\004\004\004\377\024\024(\000\001\002\003\377\026\026(\000\001\002\003\007\000\355\321\007\021*\004\006\000\355\321\006\023.\004\007\r\f*\006\013\n*\204\n\f \377\n\016&\007\007\007\007\377\f\f&\007\007\007\007\201\n\024 \205\n\026 \b\000\355\321\001\005\036\004\t\000\355\321\001\005\032\004\007\000\355\321\003\t\036\004\006\000\355\321\003\t\032\004\377\024\024&\004\004\004\004\377\026\026&\004\004\004\004\377\024\024(\000\001\002\003\377\026\026(\000\001\002\003\007\000\355\321\007\021*\004\006\000\355\321\006\023.\004\007\r\f*\006\013\n*\204\n\f \377\n\016&\007\007\007\007\377\f\f&\007\007\007\007\201\n\024 \205\n\026 \b\000\355\321\001\005\036\004\t\000\355\321\001\005\032\004\007\000\355\321\003\t\036\004\006\000\355\321\003\t\032\004\377\024\024&\004\004\004\004\377\026\026&\004\004\004\004\377\024\024(\000\001\002\003\377\026\026(\000\001\002\003\007\000\355\321\007\021*\004\006\000\355\321\006\023.\004\007\r\f*\006\013\n*\204\n\f \377\n\016&\007\007\007\007\377\f\f&\007\007\007\007\201\n\024 \205\n\026 \b\000\355\321\001\005\036\004\t\000\355\321\001\005\032\004\007\000\355\321\003\t\036\004\006\000\355\321\003\t\032\004\377\024\024&\004\004\004\004\377\026\026&\004\004\004\004\377\024\024(\000\001\002\003\377\026\026(\000\001\002\003\007\000\355\321\007\021*\004\006\000\355\321\006\023.\004\007\r\f*\006\013\n*\204\n\f \377\n\016&\007\007\007\007\377\f\f&\007\007\007\007\201\n\024 \205\n\026 \b\000\355\321\001\005\036\004\t\000\355\321\001\005\032\004\007\000\355\321\003\t\036\004\006\000\355\321\003\t\032\004\377\024\024&\004\004\004\004\377\026\026&\004\004\004\004\377\024\024(\000\001\002\003\377\026\026(\000\001\002\003\007\000\355\321\007\021*\004\006\000\355\321\006\023.\004\007\r\f*\006\013\n*\204\n\f \377\n\016&\007\007\007\007\377\f\f&\007\007\007\007\201\n\024 \205\n\026 \b\000\355\321\001\005\036\004\t\000\355\321\001\005\032\004\007\000\355\321\003\t\036\004\006\000\355\321\003\t\032\004\377\024\024&\004\004\004\004\377\026\026&\004\004\004\004\377\024\024(\000\001\002\003\377\026\026(\000\001\002\003\007\000\355\321\007\021*\004\006\000\355\321\006\023.\004\007\r\f*\006\013\n*\204\n\f \377\n\016&\007\007\007\007\377\f\f&\007\007\007\007\201\n\024 \205\n\026 \b\000\355\321\001\005\036\004\t\000\355\321\001\005\032\004\007\000\355\321\003\t\036\004\006\000\355\321\003\t\032\004\377\024\024&\004\004\004\004\377\026\026&\004\004\004\004\377\024\024(\000\001\002\003\377\026\026(\000\001\002\003\007\000\355\321\007\021*\004\006\000\355\321\006\023.\004\007\r\f*\006\013\n*\204\n\f \377\n\016&\007\007\007\007\377\f\f&\007\007\007\007\201\n\024 \205\n\026 \b\000\355\321\001\005\036\004\t\000\355\321\001\005\032\004\007\000\355\321\003\t\036\004\006\000\355\321\003\t\032\004\377\024\024&\004\004\004\004\377\026\026&\004\004\004\004\377\024\024(\000\001\002\003\377\026\026(\000\001\002\003\007\000\355\321\007\021*\004\006\000\355\321\006\023.\004\007\r\f*\006\013\n*\204\n\f \377\n\016&\007\007\007\007\377\f\f&\007\007\007\007\201\n\024 \205\n\026 \b\000\355\321\001\005\036\004\t\000\355\321\001\005\032\004\007\000\355\321\003\t\036\004\006\000\355\321\003\t\032\004\377\024\024&\004\004\004\004\377\026\026&\004\004\004\004\377\024\024(\000\001\002\003\377\026\026(\000\001\002\003\007\000\355\321\007\021*\004\006\000\355\321\006\023.\004\007\r\f*\006\013\n*\204\n\f \377\n\016&\007\007\007\007\377\f\f&\007\007\007\007\201\n\024 \205\n\026 \b\000\355\321\001\005\036\004\t\000\355\321\001\005\032\004\007\000\355\321\003\t\036\004\006\000\355\321\003\t\032\004\377\024\024&\004\004\004\004\377\026\026&\004\004\004\004\377\024\024(\000\001\002\003\377\026\026(\000\001\002\003\007\000\355\321\007\021*\004\006\000\355\321\006\023.\004\007\r\f*\006\013\n*\204\n\f \377\n\016&\007\007\007\007\377\f\f&\007\007\007\007\201\n\024 \205\n\026 \b\000\355\321\001\005\036\004\t\000\355\321\001\005\032\004\007\000\355\321\003\t\036\004\006\000\355\321\003\t\032\004\377\024\024&\004\004\004\004\377\026\026&\004\004\004\004\377\024\024(\000\001\002\003\377\026\026(\000\001\002\003\007\000\355\321\007\021*\004\006\000\355\321\006\023.\004\007\r\f*\006\013\n*\204\n\f \377\n\016&\007\007\007\007\377\f\f&\007\007\007\007\201\n\024 \205\n\026 \b\000\355\321\001\005\036\004\t\000\355\321\001\005\032\004\007\000\355\321\003\t\036\004\006\000\355\321\003\t\032\004\377\024\024&\004\004\004\004\377\026\026&\004\004\004\004\377\024\024(\000\001\002\003\377\026\026(\000\001\002\003\007\000\355\321\007\021*\004\006\000\355\321\006\023.\004\007\r\f*\006\013\n*\204\n\f \377\n\016&\007\007\007\007\377\f\f&\007\007\007\007\201\n\024 \205\n\026 \b\000\355\321\001\005\036\004\t\000\355\321\001\005\032\004\007\000\355\321\003\t\036\004\006\000\355\321\003\t\032\004\377\024\024&\004\004\004\004\377\026\026&\004\004\004\004\377\024\024(\000\001\002\003\377\026\026(\000\001\002\003\007\000\355\321\007\021*\004\006\000\355\321\006\023.\004\007\r\f*\006\013\n*\204\n\f \377\n\016&\007\007\007\007\377\f\f&\007\007\007\007\201\n\024 \205\n\026 \b\000\355\321\001\005\036\004\t\000\355\321\001\005\032\004\007\000\355\321\003\t\036\004\006\000\355\321\003\t\032\004\377\024\024&\004\004\004\004\377\026\026&\004\004\004\004\377\024\024(\000\001\002\003\377\026\026(\000\001\002\003\007\000\355\321\007\021*\004\006\000\355\321\006\023.\004\007\r\f*\006\013\n*\204\n\f \377\n\016&\007\007\007\007\377\f\f&\007\007\007\007\201\n\024 \205\n\026 \b\000\355\321\001\005\036\004\t\000\355\321\001\005\032\004\007\000\355\321\003\t\036\004\006\000\355\321\003\t\032\004\377\024\024&\004\004\004\004\377\026\026&\004\004\004\004\377\024\024(\000\001\002\003\377\026\026(\000\001\002\003\007\000\355\321\007\021*\004\006\000\355\321\006\023.\004\007\r\f*\006\013\n*\204\n\f \377\n\016&\007\007\007\007\377\f\f&\007\007\007\007\201\n\024 \205\n\026 \b\000\355\321\001\005\036\004\t\000\355\321\001\005\032\004\007\000\355\321\003\t\036\004\006\000\355\321\003\t\032\004\377\024\024&\004\004\004\004\377\026\026&\004\004\004\004\377\024\024(\000\001\002\003\377\026\026(\000\001\002\003\007\000\355\321\007\021*\004\006\000\355\321\006\023.\004\007\r\f*\006\013\n*\204\n\f \377\n\016&\007\007\007\007\377\f\f&\007\007\007\007\201\n\024 \205\n\026 \b\000\355\321\001\005\036\004\t\000\355\321\001\005\032\004\007\000\355\321\003\t\036\004\006\000\355\321\003\t\032\004\377\024\024&\004\004\004\004\377\026\026&\004\004\004\004\377\024\024(\000\001\002\003\377\026\026(\000\001\002\003\007\000\355\321\007\021*\004\006\000\355\321\006\023.\004\007\r\f*\006\013\n*\204\n\f \377\n\016&\007\007\007\007\377\f\f&\007\007\007\007\201\n\024 \205\n\026 \b\000\355\321\001\005\036\004\t\000\355\321\001\005\032\004\007\000\355\321\003\t\036\004\006\000\355\321\003\t\032\004\377\024\024&\004\004\004\004\377\026\026&\004\004\004\004\377\024\024(\000\001\002\003\377\026\026(\000\001\002\003\007\000\355\321\007\021*\004\006\000\355\321\006\023.\004\007\r\f*\006\013\n*\204\n\f \377\n\016&\007\007\007\007\377\f\f&\007\007\007\007\201\n\024 \205\n\026 \b\000\355\321\001\005\036\004\t\000\355\321\001\005\032\004\007\000\355\321\003\t\036\004\006\000\355\321\003\t\032\004\377\024\024&\004\004\004\004\377\026\026&\004\004\004\004\377\024\024(\000\001\002\003\377\026\026(\000\001\002\003\007\000\355\321\007\021*\004\006\000\355\321\006\023.\004\007\r\f*\006\013\n*\204\n\f \377\n\016&\007\007\007\007\377\f\f&\007\007\007\007\201\n\024 \205\n\026 \b\000\355\321\001\005\036\004\t\000\355\321\001\005\032\004\007\000\355\321\003\t\036\004\006\000\355\321\003\t\032\004\377\024\024&\004\004\004\004\377\026\026&\004\004\004\004\377\024\024(\000\001\002\003\377\026\026(\000\001\002\003\007\000\355\321\007\021*\004\006\000\355\321\006\023.\004\007\r\f*\006\013\n*\204\n\f \377\n\016&\007\007\007\007\377\f\f&\007\007\007\007\201\n\024 \205\n\026 \b\000\355\321\001\005\036\004\t\000\355\321\001\005\032\004\007\000\355\321\003\t\036\004\006\000\355\321\003\t\032\004\377\024\024&\004\004\004\004\377\026\026&\004\004\004\004\377\024\024(\000\001\002\003\377\026\026(\000\001\002\003\007\000\355\321\007\021*\004\006\000\355\321\006\023.\004\007\r\f*\006\013\n*\204\n\f \377\n\016&\007\007\007\007\377\f\f&\007\007\007\007\201\n\024 \205\n\026 \b\000\355\321\001\005\036\004\t\000\355\321\001\005\032\004\007\000\355\321\003\t\036\004\006\000\355\321\003\t\032\004\377\024\024&\004\004\004\004\377\026\026&\004\004\004\004\377\024\024(\000\001\002\003\377\026\026(\000\001\002\003\007\000\355\321\007\021*\004\006\000\355\321\006\023.\004\007\r\f*\006\013\n*\204\n\f \377\n\016&\007\007\007\007\377\f\f&\007\007\007\007\201\n\024 \205\n\026 \b\000\355\321\001\005\036\004\t\000\355\321\001\005\032\004\007\000\355\321\003\t\036\004\006\000\355\321\003\t\032\004\377\024\024&\004\004\004\004\377\026\026&\004\004\004\004\377\024\024(\000\001\002\003\377\026\026(\000\001\002\003\007\000\355\321\007\021*\004\006\000\355\321\006\023.\004\007\r\f*\006\013\n*\204\n\f \377\n\016&\007\007\007\007\377\f\f&\007\007\007\007\201\n\024 \205\n\026 \b\000\355\321\001\005\036\004\t\000\355\321\001\005\032\004\007\000\355\321\003\t\036\004\006\000\355\321\003\t\032\004\377\024\024&\004\004\004\004\377\026\026&\004\004\004\004\377\024\024(\000\001\002\003\377\026\026(\000\001\002\003\007\000\355\321\007\021*\004\006\000\355\321\006\023.\004\007\r\f*\006\013\n*\204\n\f \377\n\016&\007\007\007\007\377\f\f&\007\007\007\007\201\n\024 \205\n\026 \b\000\355\321\001\005\036\004\t\000\355\321\001\005\032\004\007\000\355\321\003\t\036\004\006\000\355\321\003\t\032\004\377\024\024&\004\004\004\004\377\026\026&\004\004\004\004\377\024\024(\000\001\002\003\377\026\026(\000\001\002\003\007\000\355\321\007\021*\004\006\000\355\321\006\023.\004\007\r\f*\006\013\n*\204\n\f \377\n\016&\007\007\007\007\377\f\f&\007\007\007\007\201\n\024 \205\n\026 \b\000\355\321\001\005\036\004\t\000\355\321\001\005\032\004\007\000\355\321\003\t\036\004\006\000\355\321\003\t\032\004\377\024\024&\004\004\004\004\377\026\026&\004\004\004\004\377\024\024(\000\001\002\003\377\026\026(\000\001\002\003\007\000\355\321\007\021*\004\006\000\355\321\006\023.\004\007\r\f*\006\013\n*\204\n\f \377\n\016&\007\007\007\007\377\f\f&\007\007\007\007\201\n\024 \205\n\026 \b\000\355\321\001\005\036\004\t\000\355\321\001\005\032\004\007\000\355\321\003\t\036\004\006\000\355\321\003\t\032\004\377\024\024&\004\004\004\004\377\026\026&\004\004\004\004\377\024\024(\000\001\002\003\377\026\026(\000\001\002\003\007\000\355\321\007\021*\004\006\000\355\321\006\023.\004\007\r\f*\006\013\n*\204\n\f \377\n\016&\007\007\007\007\377\f\f&\007\007\007\007\201\n\024 \205\n\026 \b\000\355\321\001\005\036\004\t\000\355\321\001\005\032\004\007\000\355\321\003\t\036\004\006\000\355\321\003\t\032\004\377\024\024&\004\004\004\004\377\026\026&\004\004\004\004\377\024\024(\000\001\002\003\377\026\026(\000\001\002\003\007\000\355\321\007\021*\004\006\000\355\321\006\023.\004\007\r\f*\006\013\n*\204\n\f \377\n\016&\007\007\007\007\377\f\f&\007\007\007\007\201\n\024 \205\n\026 \b\000\355\321\001\005\036\004\t\000\355\321\001\005\032\004\007\000\355\321\003\t\036\004\006\000\355\321\003\t\032\004\377\024\024&\004\004\004\004\377\026\026&\004\004\004\004\377\024\024(\000\001\002\003\377\026\026(\000\001\002\003\007\000\355\321\007\021*\004\006\000\355\321\006\023.\004\007\r\f*\006\013\n*\204\n\f \377\n\016&\007\007\007\007\377\f\f&\007\007\007\007\201\n\024 \205\n\026 \b\000\355\321\001\005\036\004\t\000\355\321\001\005\032\004\007\000\355\321\003\t\036\004\006\000\355\321\003\t\032\004\377\024\024&\004\004\004\004\377\026\026&\004\004\004\004\377\024\024(\000\001\002\003\377\026\026(\000\001\002\003\007\000\355\321\007\021*\004\006\000\355\321\006\023.\004\007\r\f*\006\013\n*\204\n\f \377\n\016&\007\007\007\007\377\f\f&\007\007\007\007\201\n\024 \205\n\026 \b\000\355\321\001\005\036\004\t\000\355\321\001\005\032\004\007\000\355\321\003\t\036\004\006\000\355\321\003\t\032\004\377\024\024&\004\004\004\004\377\026\026&\004\004\004\004\377\024\024(\000\001\002\003\377\026\026(\000\001\002\003\007\000\355\321\007\021*\004\006\000\355\321\006\023.\004\007\r\f*\006\013\n*\204\n\f \377\n\016&\007\007\007\007\377\f\f&\007\007\007\007\201\n\024 \205\n\026 \b\000\355\321\001\005\036\004\t\000\355\321\001\005\032\004\007\000\355\321\003\t\036\004\006\000\355\321\003\t\032\004\377\024\024&\004\004\004\004\377\026\026&\004\004\004\004\377\024\024(\000\001\002\003\377\026\026(\000\001\002\003\007\000\355\321\007\021*\004\006\000\355\321\006\023.\004\007\r\f*\006\013\n*\204\n\f \377\n\016&\007\007\007\007\377\f\f&\007\007\007\007\201\n\024 \205\n\026 \b\000\355\321\001\005\036\004\t\000\355\321\001\005\032\004\007\000\355\321\003\t\036\004\006\000\355\321\003\t\032\004\377\024\024&\004\004\004\004\377\026\026&\004\004\004\004\377\024\024(\000\001\002\003\377\026\026(\000\001\002\003\007\000\355\321\007\021*\004\006\000\355\321\006\023.\004\007\r\f*\006\013\n*\204\n\f \377\n\016&\007\007\007\007\377\f\f&\007\007\007\007\201\n\024 \205\n\026 \b\000\355\321\001\005\036\004\t\000\355\321\001\005\032\004\007\000\355\321\003\t\036\004\006\000\355\321\003\t\032\004\377\024\024&\004\004\004\004\377\026\026&\004\004\004\004\377\024\024(\000\001\002\003\377\026\026(\000\001\002\003\007\000\355\321\007\021*\004\006\000\355\321\006\023.\004\007\r\f*\006\013\n*\204\n\f \377\n\016&\007\007\007\007\377\f\f&\007\007\007\007\201\n\024 \205\n\026 \b\000\355\321\001\005\036\004\t\000\355\321\001\005\032\004\007\000\355\321\003\t\036\004\006\000\355\321\003\t\032\004\377\024\024&\004\004\004\004\377\026\026&\004\004\004\004\377\024\024(\000\001\002\003\377\026\026(\000\001\002\003\007\000\355\321\007\021*\004\006\000\355\321\006\023.\004\007\r\f*\006\013\n*\204\n\f \377\n\016&\007\007\007\007\377\f\f&\007\007\007\007\201\n\024 \205\n\026 \b\000\355\321\001\005\036\004\t\000\355\321\001\005\032\004\007\000\355\321\003\t\036\004\006\000\355\321\003\t\032\004\377\024\024&\004\004\004\004\377\026\026&\004\004\004\004\377\024\024(\000\001\002\003\377\026\026(\000\001\002\003\007\000\355\321\007\021*\004\006\000\355\321\006\023.\004\007\r\f*\006\013\n*\204\n\f \377\n\016&\007\007\007\007\377\f\f&\007\007\007\007\201\n\024 \205\n\026 \b\000\355\321\001\005\036\004\t\000\355\321\001\005\032\004\007\000\355\321\003\t\036\004\006\000\355\321\003\t\032\004\377\024\024&\004\004\004\004\377\026\026&\004\004\004\004\377\024\024(\000\001\002\003\377\026\026(\000\001\002\003\007\000\355\321\007\021*\004\006\000\355\321\006\023.\004\007\r\f*\006\013\n*\204\n\f \377\n\016&\007\007\007\007\377\f\f&\007\007\007\007\201\n\024 \205\n\026 \b\000\355\321\001\005\036\004\t\000\355\321\001\005\032\004\007\000\355\321\003\t\036\004\006\000\355\321\003\t\032\004\377\024\024&\004\004\004\004\377\026\026&\004\004\004\004\377\024\024(\000\001\002\003\377\026\026(\000\001\002\003\007\000\355\321\007\021*\004\006\000\355\321\006\023.\004\007\r\f*\006\013\n*\204\n\f \377\n\016&\007\007\007\007\377\f\f&\007\007\007\007\201\n\024 \205\n\026 \b\000\355\321\001\005\036\004\t\000\355\321\001\005\032\004\007\000\355\321\003\t\036\004\006\000\355\321\003\t\032\004\377\024\024&\004\004\004\004\377\026\026&\004\004\004\004\377\024\024(\000\001\002\003\377\026\026(\000\001\002\003\007\000\355\321\007\021*\004\006\000\355\321\006\023.\004\007\r\f*\006\013\n*\204\n\f \377\n\016&\007\007\007\007\377\f\f&\007\007\007\007\201\n\024 \205\n\026 \b\000\355\321\001\005\036\004\t\000\355\321\001\005\032\004\007\000\355\321\003\t\036\004\006\000\355\321\003\t\032\004\377\024\024&\004\004\004\004\377\026\026&\004\004\004\004\377\024\024(\000\001\002\003\377\026\026(\000\001\002\003\007\000\355\321\007\021*\004\006\000\355\321\006\023.\004\007\r\f*\006\013\n*\204\n\f \377\n\016&\007\007\007\007\377\f\f&\007\007\007\007\201\n\024 \205\n\026 \b\000\355\321\001\005\036\004\t\000\355\321\001\005\032\004\007\000\355\321\003\t\036\004\006\000\355\321\003\t\032\004\377\024\024&\004\004\004\004\377\026\026&\004\004\004\004\377\024\024(\000\001\002\003\377\026\026(\000\001\002\003\007\000\355\321\007\021*\004\006\000\355\321\006\023.\004\007\r\f*\006\013\n*\204\n\f \377\n\016&\007\007\007\007\377\f\f&\007\007\007\007\201\n\024 \205\n\026 \b\000\355\321\001\005\036\004\t\000\355\321\001\005\032\004\007\000\355\321\003\t\036\004\006\000\355\321\003\t\032\004\377\024\024&\004\004\004\004\377\026\026&\004\004\004\004\377\024\024(\000\001\002\003\377\026\026(\000\001\002\003\007\000\355\321\007\021*\004\006\000\355\321\006\023.\004\007\r\f*\006\013\n*\204\n\f \377\n\016&\007\007\007\007\377\f\f&\007\007\007\007\201\n\024 \205\n\026 \b\000\355\321\001\005\036\004\t\000\355\321\001\005\032\004\007\000\355\321\003\t\036\004\006\000\355\321\003\t\032\004\377\024\024&\004\004\004\004\377\026\026&\004\004\004\004\377\024\024(\000\001\002\003\377\026\026(\000\001\002\003\007\000\355\321\007\021*\004\006\000\355\321\006\023.\004\007\r\f*\006\013\n*\204\n\f \377\n\016&\007\007\007\007\377\f\f&\007\007\007\007\201\n\024 \205\n\026 \b\000\355\321\001\005\036\004\t\000\355\321\001\005\032\004\007\000\355\321\003\t\036\004\006\000\355\321\003\t\032\004\377\024\024&\004\004\004\004\377\026\026&\004\004\004\004\377\024\024(\000\001\002\003\377\026\026(\000\001\002\003\007\000\355\321\007\021*\004\006\000\355\321\006\023.\004\007\r\f*\006\013\n*\204\n\f \377\n\016&\007\007\007\007\377\f\f&\007\007\007\007\201\n\024 \205\n\026 \b\000\355\321\001\005\036\004\t\000\355\321\001\005\032\004\007\000\355\321\003\t\036\004\006\000\355\321\003\t\032\004\377\024\024&\004\004\004\004\377\026\026&\004\004\004\004\377\024\024(\000\001\002\003\377\026\026(\000\001\002\003\007\000\355\321\007\021*\004\006\000\355\321\006\023.\004\007\r\f*\006\013\n*\204\n\f \377\n\016&\007\007\007\007\377\f\f&\007\007\007\007\201\n\024 \205\n\026 \b\000\355\321\001\005\036\004\t\000\355\321\001\005\032\004\007\000\355\321\003\t\036\004\006\000\355\321\003\t\032\004\377\024\024&\004\004\004\004\377\026\026&\004\004\004\004\377\024\024(\000\001\002\003\377\026\026(\000\001\002\003\007\000\355\321\007\021*\004\006\000\355\321\006\023.\004\007\r\f*\006\013\n*\204\n\f \377\n\016&\007\007\007\007\377\f\f&\007\007\007\007\201\n\024 \205\n\026 \b\000\355\321\001\005\036\004\t\000\355\321\001\005\032\004\007\000\355\321\003\t\036\004\006\000\355\321\003\t\032\004\377\024\024&\004\004\004\004\377\026\026&\004\004\004\004\377\024\024(\000\001\002\003\377\026\026(\000\001\002\003\007\000\355\321\007\021*\004\006\000\355\321\006\023.\004\007\r\f*\006\013\n*\204\n\f \377\n\016&\007\007\007\007\377\f\f&\007\007\007\007\201\n\024 \205\n\026 \b\000\355\321\001\005\036\004\t\000\355\321\001\005\032\004\007\000\355\321\003\t\036\004\006\000\355\321\003\t\032\004\377\024\024&\004\004\004\004\377\026\026&\004\004\004\004\377\024\024(\000\001\002\003\377\026\026(\000\001\002\003\007\000\355\321\007\021*\004\006\000\355\321\006\023.\004\007\r\f*\006\013\n*\204\n\f \377\n\016&\007\007\007\007\377\f\f&\007\007\007\007\201\n\024 \205\n\026 \b\000\355\321\001\005\036\004\t\000\355\321\001\005\032\004\007\000\355\321\003\t\036\004\006\000\355\321\003\t\032\004\377\024\024&\004\004\004\004\377\026\026&\004\004\004\004\377\024\024(\000\001\002\003\377\026\026(\000\001\002\003\007\000\355\321\007\021*\004\006\000\355\321\006\023.\004\007\r\f*\006\013\n*\204\n\f \377\n\016&\007\007\007\007\377\f\f&\007\007\007\007\201\n\024 \205\n\026 \b\000\355\321\001\005\036\004\t\000\355\321\001\005\032\004\007\000\355\321\003\t\036\004\006\000\355\321\003\t\032\004\377\024\024&\004\004\004\004\377\026\026&\004\004\004\004\377\024\024(\000\001\002\003\377\026\026(\000\001\002\003\007\000\355\321\007\021*\004\006\000\355\321\006\023.\004\007\r\f*\006\013\n*\204\n\f \377\n\016&\007\007\007\007\377\f\f&\007\007\007\007\201\n\024 \205\n\026 \b\000\355\321\001\005\036\004\t\000\355\321\001\005\032\004\007\000\355\321\003\t\036\004\006\000\355\321\003\t\032\004\377\024\024&\004\004\004\004\377\026\026&\004\004\004\004\377\024\024(\000\001\002\003\377\026\026(\000\001\002\003\007\000\355\321\007\021*\004\006\000\355\321\006\023.\004\007\r\f*\006\013\n*\204\n\f \377\n\016&\007\007\007\007\377\f\f&\007\007\007\007\201\n\024 \205\n\026 \b\000\355\321\001\005\036\004\t\000\355\321\001\005\032\004\007\000\355\321\003\t\036\004\006\000\355\321\003\t\032\004\377\024\024&\004\004\004\004\377\026\026&\004\004\004\004\377\024\024(\000\001\002\003\377\026\026(\000\001\002\003\007\000\355\321\007\021*\004\006\000\355\321\006\023.\004\007\r\f*\006\013\n*\204\n\f \377\n\016&\007\007\007\007\377\f\f&\007\007\007\007\201\n\024 \205\n\026 \b\000\355\321\001\005\036\004\t\000\355\321\001\005\032\004\007\000\355\321\003\t\036\004\006\000\355\321\003\t\032\004\377\024\024&\004\004\004\004\377\026\026&\004\004\004\004\377\024\024(\000\001\002\003\377\026\026(\000\001\002\003\007\000\355\321\007\021*\004\006\000\355\321\006\023.\004\007\r\f*\006\013\n*\204\n\f \377\n\016&\007\007\007\007\377\f\f&\007\007\007\007\201\n\024 \205\n\026 \b\000\355\321\001\005\036\004\t\000\355\321\001\005\032\004\007\000\355\321\003\t\036\004\006\000\355\321\003\t\032\004\377\024\024&\004\004\004\004\377\026\026&\004\004\004\004\377\024\024(\000\001\002\003\377\026\026(\000\001\002\003\007\000\355\321\007\021*\004\006\000\355\321\006\023.\004\007\r\f*\006\013\n*\204\n\f \377\n\016&\007\007\007\007\377\f\f&\007\007\007\007\201\n\024 \205\n\026 \b\000\355\321\001\005\036\004\t\000\355\321\001\005\032\004\007\000\355\321\003\t\036\004\006\000\355\321\003\t\032\004\377\024\024&\004\004\004\004\377\026\026&\004\004\004\004\377\024\024(\000\001\002\003\377\026\026(\000\001\002\003\007\000\355\321\007\021*\004\006\000\355\321\006\023.\004\007\r\f*\006\013\n*\204\n\f \377\n\016&\007\007\007\007\377\f\f&\007\007\007\007\201\n\024 \205\n\026 \b\000\355\321\001\005\036\004\t\000\355\321\001\005\032\004\007\000\355\321\003\t\036\004\006\000\355\321\003\t\032\004\377\024\024&\004\004\004\004\377\026\026&\004\004\004\004\377\024\024(\000\001\002\003\377\026\026(\000\001\002\003\007\000\355\321\007\021*\004\006\000\355\321\006\023.\004\007\r\f*\006\013\n*\204\n\f \377\n\016&\007\007\007\007\377\f\f&\007\007\007\007\201\n\024 \205\n\026 \b\000\355\321\001\005\036\004\t\000\355\321\001\005\032\004\007\000\355\321\003\t\036\004\006\000\355\321\003\t\032\004\377\024\024&\004\004\004\004\377\026\026&\004\004\004\004\377\024\024(\000\001\002\003\377\026\026(\000\001\002\003\007\000\355\321\007\021*\004\006\000\355\321\006\023.\004\007\r\f*\006\013\n*\204\n\f \377\n\016&\007\007\007\007\377\f\f&\007\007\007\007\201\n\024 \205\n\026 \b\000\355\321\001\005\036\004\t\000\355\321\001\005\032\004\007\000\355\321\003\t\036\004\006\000\355\321\003\t\032\004\377\024\024&\004\004\004\004\377\026\026&\004\004\004\004\377\024\024(\000\001\002\003\377\026\026(\000\001\002\003\007\000\355\321\007\021*\004\006\000\355\321\006\023.\004\007\r\f*\006\013\n*\204\n\f \377\n\016&\007\007\007\007\377\f\f&\007\007\007\007\201\n\024 \205\n\026 \b\000\355\321\001\005\036\004\t\000\355\321\001\005\032\004\007\000\355\321\003\t\036\004\006\000\355\321\003\t\032\004\377\024\024&\004\004\004\004\377\026\026&\004\004\004\004\377\024\024(\000\001\002\003\377\026\026(\000\001\002\003\007\000\355\321\007\021*\004\006\000\355\321\006\023.\004\007\r\f*\006\013\n*\204\n\f \377\n\016&\007\007\007\007\377\f\f&\007\007\007\007\201\n\024 \205\n\026 \b\000\355\321\001\005\036\004\t\000\355\321\001\005\032\004\007\000\355\321\003\t\036\004\006\000\355\321\003\t\032\004\377\024\024&\004\004\004\004\377\026\026&\004\004\004\004\377\024\024(\000\001\002\003\377\026\026(\000\001\002\003\007\000\355\321\007\021*\004\006\000\355\321\006\023.\004\007\r\f*\006\013\n*\204\n\f \377\n\016&\007\007\007\007\377\f\f&\007\007\007\007\201\n\024 \205\n\026 \b\000\355\321\001\005\036\004\t\000\355\321\001\005\032\004\007\000\355\321\003\t\036\004\006\000\355\321\003\t\032\004\377\024\024&\004\004\004\004\377\026\026&\004\004\004\004\377\024\024(\000\001\002\003\377\026\026(\000\001\002\003\007\000\355\321\007\021*\004\006\000\355\321\006\023.\004\007\r\f*\006\013\n*\204\n\f \377\n\016&\007\007\007\007\377\f\f&\007\007\007\007\201\n\024 \205\n\026 \b\000\355\321\001\005\036\004\t\000\355\321\001\005\032\004\007\000\355\321\003\t\036\004\006\000\355\321\003\t\032\004\377\024\024&\004\004\004\004\377\026\026&\004\004\004\004\377\024\024(\000\001\002\003\377\026\026(\000\001\002\003\007\000\355\321\007\021*\004\006\000\355\321\006\023.\004\007\r\f*\006\013\n*\204\n\f \377\n\016&\007\007\007\007\377\f\f&\007\007\007\007\201\n\024 \205\n\026 \b\000\355\321\001\005\036\004\t\000\355\321\001\005\032\004\007\000\355\321\003\t\036\004\006\000\355\321\003\t\032\004\377\024\024&\004\004\004\004\377\026\026&\004\004\004\004\377\024\024(\000\001\002\003\377\026\026(\000\001\002\003\007\000\355\321\007\021*\004\006\000\355\321\006\023.\004\007\r\f*\006\013\n*\204\n\f \377\n\016&\007\007\007\007\377\f\f&\007\007\007\007\b\000\355\321\001\005\036\004\002\000\355\321\001\005\032\004\001\000\355\321\003\t\036\004\003\000\355\321\003\t\032\004\201\n\b \205\n\n \377\b\b&\004\004\004\004\377\n\n&\004\004\004\004\377\b\b(\000\001\002\003\377\n\n(\000\001\002\003\001\000\355\321\001\021\022\004\002\000\355\321\003\005\026\004\201\000\006$\237\006\b\"\003\000\217\322\202\006\002\000\001\002\000~\000\006\0062\000\t\b8\000\200t\334\003\001\177\000\000\000\201\277\000\000\200\277\000\000\200\277\000\000\200\277\000\000\200\277\002\000\002\300$\000\000\000B\000\002\300\020\000\000\000\177\300\214\277\000\377\000\206\377\377\000\000\006\000\006\222\006\000\000h\001\000\210}j \200\276G\n\210\277\002\000\n\300\000\000\000\000\237\000\002\"\001\000\217\322\202\000\002\000\377\002\b~\000\377\376\375\177\300\214\277\003\002\006~\002\002\0022\003\005\0048\000\200P\334\001\000\177\005\377\000\203\276\200\200\200\200\377\000\202\276\007\007\007\007\377\002\002~\004\006\b\f\377\002\004~\000\001\002\003\377\002\006~\374\372\370\364p\017\214\277\377\n\016&\007\007\007\007\204\n\020$\204\n\f \377\n\022&\200\200\200\200\007\000\001\322\b\007\034\004\006\000\001\322\006\005$\004\377\016\020*\200\200\200\200\377\f\022*\200\200\200\200\007\000\355\321\001\005\036\004\b\000\355\321\003\t\"\004\006\000\355\321\001\005\032\004\t\000\355\321\003\t&\004\b\017\016(\t\r\f(\007\r\f*\006\013\n*\377\n\016&\007\007\007\007\204\n\020$\204\n\f \377\n\022&\200\200\200\200\007\000\001\322\b\007\034\004\006\000\001\322\006\005$\004\377\016\020*\200\200\200\200\377\f\022*\200\200\200\200\007\000\355\321\001\005\036\004\b\000\355\321\003\t\"\004\006\000\355\321\001\005\032\004\t\000\355\321\003\t&\004\b\017\016(\t\r\f(\007\r\f*\006\013\n*\377\n\016&\007\007\007\007\204\n\020$\204\n\f \377\n\022&\200\200\200\200\007\000\001\322\b\007\034\004\006\000\001\322\006\005$\004\377\016\020*\200\200\200\200\377\f\022*\200\200\200\200\007\000\355\321\001\005\036\004\b\000\355\321\003\t\"\004\006\000\355\321\001\005\032\004\t\000\355\321\003\t&\004\b\017\016(\t\r\f(\007\r\f*\006\013\n*\377\n\016&\007\007\007\007\204\n\020$\204\n\f \377\n\022&\200\200\200\200\007\000\001\322\b\007\034\004\006\000\001\322\006\005$\004\377\016\020*\200\200\200\200\377\f\022*\200\200\200\200\007\000\355\321\001\005\036\004\b\000\355\321\003\t\"\004\006\000\355\321\001\005\032\004\t\000\355\321\003\t&\004\b\017\016(\t\r\f(\007\r\f*\006\013\n*\377\n\016&\007\007\007\007\204\n\020$\204\n\f \377\n\022&\200\200\200\200\007\000\001\322\b\007\034\004\006\000\001\322\006\005$\004\377\016\020*\200\200\200\200\377\f\022*\200\200\200\200\007\000\355\321\001\005\036\004\b\000\355\321\003\t\"\004\006\000\355\321\001\005\032\004\t\000\355\321\003\t&\004\b\017\016(\t\r\f(\007\r\f*\006\013\n*\377\n\016&\007\007\007\007\204\n\020$\204\n\f \377\n\022&\200\200\200\200\007\000\001\322\b\007\034\004\006\000\001\322\006\005$\004\377\016\020*\200\200\200\200\377\f\022*\200\200\200\200\007\000\355\321\001\005\036\004\b\000\355\321\003\t\"\004\006\000\355\321\001\005\032\004\t\000\355\321\003\t&\004\b\017\016(\t\r\f(\007\r\f*\006\013\n*\377\n\016&\007\007\007\007\204\n\020$\204\n\f \377\n\022&\200\200\200\200\007\000\001\322\b\007\034\004\006\000\001\322\006\005$\004\377\016\020*\200\200\200\200\377\f\022*\200\200\200\200\007\000\355\321\001\005\036\004\b\000\355\321\003\t\"\004\006\000\355\321\001\005\032\004\t\000\355\321\003\t&\004\b\017\016(\t\r\f(\007\r\f*\006\013\n*\377\n\016&\007\007\007\007\204\n\020$\204\n\f \377\n\022&\200\200\200\200\007\000\001\322\b\007\034\004\006\000\001\322\006\005$\004\377\016\020*\200\200\200\200\377\f\022*\200\200\200\200\007\000\355\321\001\005\036\004\b\000\355\321\003\t\"\004\006\000\355\321\001\005\032\004\t\000\355\321\003\t&\004\b\017\016(\t\r\f(\007\r\f*\006\013\n*\377\n\016&\007\007\007\007\204\n\020$\204\n\f \377\n\022&\200\200\200\200\007\000\001\322\b\007\034\004\006\000\001\322\006\005$\004\377\016\020*\200\200\200\200\377\f\022*\200\200\200\200\007\000\355\321\001\005\036\004\b\000\355\321\003\t\"\004\006\000\355\321\001\005\032\004\t\000\355\321\003\t&\004\b\017\016(\t\r\f(\007\r\f*\006\013\n*\377\n\016&\007\007\007\007\204\n\020$\204\n\f \377\n\022&\200\200\200\200\007\000\001\322\b\007\034\004\006\000\001\322\006\005$\004\377\016\020*\200\200\200\200\377\f\022*\200\200\200\200\007\000\355\321\001\005\036\004\b\000\355\321\003\t\"\004\006\000\355\321\001\005\032\004\t\000\355\321\003\t&\004\b\017\016(\t\r\f(\007\r\f*\006\013\n*\377\n\016&\007\007\007\007\204\n\020$\204\n\f \377\n\022&\200\200\200\200\007\000\001\322\b\007\034\004\006\000\001\322\006\005$\004\377\016\020*\200\200\200\200\377\f\022*\200\200\200\200\007\000\355\321\001\005\036\004\b\000\355\321\003\t\"\004\006\000\355\321\001\005\032\004\t\000\355\321\003\t&\004\b\017\016(\t\r\f(\007\r\f*\006\013\n*\377\n\016&\007\007\007\007\204\n\020$\204\n\f \377\n\022&\200\200\200\200\007\000\001\322\b\007\034\004\006\000\001\322\006\005$\004\377\016\020*\200\200\200\200\377\f\022*\200\200\200\200\007\000\355\321\001\005\036\004\b\000\355\321\003\t\"\004\006\000\355\321\001\005\032\004\t\000\355\321\003\t&\004\b\017\016(\t\r\f(\007\r\f*\006\013\n*\377\n\016&\007\007\007\007\204\n\020$\204\n\f \377\n\022&\200\200\200\200\007\000\001\322\b\007\034\004\006\000\001\322\006\005$\004\377\016\020*\200\200\200\200\377\f\022*\200\200\200\200\007\000\355\321\001\005\036\004\b\000\355\321\003\t\"\004\006\000\355\321\001\005\032\004\t\000\355\321\003\t&\004\b\017\016(\t\r\f(\007\r\f*\006\013\n*\377\n\016&\007\007\007\007\204\n\020$\204\n\f \377\n\022&\200\200\200\200\007\000\001\322\b\007\034\004\006\000\001\322\006\005$\004\377\016\020*\200\200\200\200\377\f\022*\200\200\200\200\007\000\355\321\001\005\036\004\b\000\355\321\003\t\"\004\006\000\355\321\001\005\032\004\t\000\355\321\003\t&\004\b\017\016(\t\r\f(\007\r\f*\006\013\n*\377\n\016&\007\007\007\007\204\n\020$\204\n\f \377\n\022&\200\200\200\200\007\000\001\322\b\007\034\004\006\000\001\322\006\005$\004\377\016\020*\200\200\200\200\377\f\022*\200\200\200\200\007\000\355\321\001\005\036\004\b\000\355\321\003\t\"\004\006\000\355\321\001\005\032\004\t\000\355\321\003\t&\004\b\017\016(\t\r\f(\007\r\f*\006\013\n*\377\n\016&\007\007\007\007\204\n\020$\204\n\f \377\n\022&\200\200\200\200\007\000\001\322\b\007\034\004\006\000\001\322\006\005$\004\377\016\020*\200\200\200\200\377\f\022*\200\200\200\200\007\000\355\321\001\005\036\004\b\000\355\321\003\t\"\004\006\000\355\321\001\005\032\004\t\000\355\321\003\t&\004\b\017\016(\t\r\f(\007\r\f*\006\013\n*\377\n\016&\007\007\007\007\204\n\020$\204\n\f \377\n\022&\200\200\200\200\007\000\001\322\b\007\034\004\006\000\001\322\006\005$\004\377\016\020*\200\200\200\200\377\f\022*\200\200\200\200\007\000\355\321\001\005\036\004\b\000\355\321\003\t\"\004\006\000\355\321\001\005\032\004\t\000\355\321\003\t&\004\b\017\016(\t\r\f(\007\r\f*\006\013\n*\377\n\016&\007\007\007\007\204\n\020$\204\n\f \377\n\022&\200\200\200\200\007\000\001\322\b\007\034\004\006\000\001\322\006\005$\004\377\016\020*\200\200\200\200\377\f\022*\200\200\200\200\007\000\355\321\001\005\036\004\b\000\355\321\003\t\"\004\006\000\355\321\001\005\032\004\t\000\355\321\003\t&\004\b\017\016(\t\r\f(\007\r\f*\006\013\n*\377\n\016&\007\007\007\007\204\n\020$\204\n\f \377\n\022&\200\200\200\200\007\000\001\322\b\007\034\004\006\000\001\322\006\005$\004\377\016\020*\200\200\200\200\377\f\022*\200\200\200\200\007\000\355\321\001\005\036\004\b\000\355\321\003\t\"\004\006\000\355\321\001\005\032\004\t\000\355\321\003\t&\004\b\017\016(\t\r\f(\007\r\f*\006\013\n*\377\n\016&\007\007\007\007\204\n\020$\204\n\f \377\n\022&\200\200\200\200\007\000\001\322\b\007\034\004\006\000\001\322\006\005$\004\377\016\020*\200\200\200\200\377\f\022*\200\200\200\200\007\000\355\321\001\005\036\004\b\000\355\321\003\t\"\004\006\000\355\321\001\005\032\004\t\000\355\321\003\t&\004\b\017\016(\t\r\f(\007\r\f*\006\013\n*\377\n\016&\007\007\007\007\204\n\020$\204\n\f \377\n\022&\200\200\200\200\007\000\001\322\b\007\034\004\006\000\001\322\006\005$\004\377\016\020*\200\200\200\200\377\f\022*\200\200\200\200\007\000\355\321\001\005\036\004\b\000\355\321\003\t\"\004\006\000\355\321\001\005\032\004\t\000\355\321\003\t&\004\b\017\016(\t\r\f(\007\r\f*\006\013\n*\377\n\016&\007\007\007\007\204\n\020$\204\n\f \377\n\022&\200\200\200\200\007\000\001\322\b\007\034\004\006\000\001\322\006\005$\004\377\016\020*\200\200\200\200\377\f\022*\200\200\200\200\007\000\355\321\001\005\036\004\b\000\355\321\003\t\"\004\006\000\355\321\001\005\032\004\t\000\355\321\003\t&\004\b\017\016(\t\r\f(\007\r\f*\006\013\n*\377\n\016&\007\007\007\007\204\n\020$\204\n\f \377\n\022&\200\200\200\200\007\000\001\322\b\007\034\004\006\000\001\322\006\005$\004\377\016\020*\200\200\200\200\377\f\022*\200\200\200\200\007\000\355\321\001\005\036\004\b\000\355\321\003\t\"\004\006\000\355\321\001\005\032\004\t\000\355\321\003\t&\004\b\017\016(\t\r\f(\007\r\f*\006\013\n*\377\n\016&\007\007\007\007\204\n\020$\204\n\f \377\n\022&\200\200\200\200\007\000\001\322\b\007\034\004\006\000\001\322\006\005$\004\377\016\020*\200\200\200\200\377\f\022*\200\200\200\200\007\000\355\321\001\005\036\004\b\000\355\321\003\t\"\004\006\000\355\321\001\005\032\004\t\000\355\321\003\t&\004\b\017\016(\t\r\f(\007\r\f*\006\013\n*\377\n\016&\007\007\007\007\204\n\020$\204\n\f \377\n\022&\200\200\200\200\007\000\001\322\b\007\034\004\006\000\001\322\006\005$\004\377\016\020*\200\200\200\200\377\f\022*\200\200\200\200\007\000\355\321\001\005\036\004\b\000\355\321\003\t\"\004\006\000\355\321\001\005\032\004\t\000\355\321\003\t&\004\b\017\016(\t\r\f(\007\r\f*\006\013\n*\377\n\016&\007\007\007\007\204\n\020$\204\n\f \377\n\022&\200\200\200\200\007\000\001\322\b\007\034\004\006\000\001\322\006\005$\004\377\016\020*\200\200\200\200\377\f\022*\200\200\200\200\007\000\355\321\001\005\036\004\b\000\355\321\003\t\"\004\006\000\355\321\001\005\032\004\t\000\355\321\003\t&\004\b\017\016(\t\r\f(\007\r\f*\006\013\n*\377\n\016&\007\007\007\007\204\n\020$\204\n\f \377\n\022&\200\200\200\200\007\000\001\322\b\007\034\004\006\000\001\322\006\005$\004\377\016\020*\200\200\200\200\377\f\022*\200\200\200\200\007\000\355\321\001\005\036\004\b\000\355\321\003\t\"\004\006\000\355\321\001\005\032\004\t\000\355\321\003\t&\004\b\017\016(\t\r\f(\007\r\f*\006\013\n*\377\n\016&\007\007\007\007\204\n\020$\204\n\f \377\n\022&\200\200\200\200\007\000\001\322\b\007\034\004\006\000\001\322\006\005$\004\377\016\020*\200\200\200\200\377\f\022*\200\200\200\200\007\000\355\321\001\005\036\004\b\000\355\321\003\t\"\004\006\000\355\321\001\005\032\004\t\000\355\321\003\t&\004\b\017\016(\t\r\f(\007\r\f*\006\013\n*\377\n\016&\007\007\007\007\204\n\020$\204\n\f \377\n\022&\200\200\200\200\007\000\001\322\b\007\034\004\006\000\001\322\006\005$\004\377\016\020*\200\200\200\200\377\f\022*\200\200\200\200\007\000\355\321\001\005\036\004\b\000\355\321\003\t\"\004\006\000\355\321\001\005\032\004\t\000\355\321\003\t&\004\b\017\016(\t\r\f(\007\r\f*\006\013\n*\377\n\016&\007\007\007\007\204\n\020$\204\n\f \377\n\022&\200\200\200\200\007\000\001\322\b\007\034\004\006\000\001\322\006\005$\004\377\016\020*\200\200\200\200\377\f\022*\200\200\200\200\007\000\355\321\001\005\036\004\b\000\355\321\003\t\"\004\006\000\355\321\001\005\032\004\t\000\355\321\003\t&\004\b\017\016(\t\r\f(\007\r\f*\006\013\n*\377\n\016&\007\007\007\007\204\n\020$\204\n\f \377\n\022&\200\200\200\200\007\000\001\322\b\007\034\004\006\000\001\322\006\005$\004\377\016\020*\200\200\200\200\377\f\022*\200\200\200\200\007\000\355\321\001\005\036\004\b\000\355\321\003\t\"\004\006\000\355\321\001\005\032\004\t\000\355\321\003\t&\004\b\017\016(\t\r\f(\007\r\f*\006\013\n*\377\n\016&\007\007\007\007\204\n\020$\204\n\f \377\n\022&\200\200\200\200\007\000\001\322\b\007\034\004\006\000\001\322\006\005$\004\377\016\020*\200\200\200\200\377\f\022*\200\200\200\200\007\000\355\321\001\005\036\004\b\000\355\321\003\t\"\004\006\000\355\321\001\005\032\004\t\000\355\321\003\t&\004\b\017\016(\t\r\f(\007\r\f*\006\013\n*\377\n\016&\007\007\007\007\204\n\020$\204\n\f \377\n\022&\200\200\200\200\007\000\001\322\b\007\034\004\006\000\001\322\006\005$\004\377\016\020*\200\200\200\200\377\f\022*\200\200\200\200\007\000\355\321\001\005\036\004\b\000\355\321\003\t\"\004\006\000\355\321\001\005\032\004\t\000\355\321\003\t&\004\b\017\016(\t\r\f(\007\r\f*\006\013\n*\377\n\016&\007\007\007\007\204\n\020$\204\n\f \377\n\022&\200\200\200\200\007\000\001\322\b\007\034\004\006\000\001\322\006\005$\004\377\016\020*\200\200\200\200\377\f\022*\200\200\200\200\007\000\355\321\001\005\036\004\b\000\355\321\003\t\"\004\006\000\355\321\001\005\032\004\t\000\355\321\003\t&\004\b\017\016(\t\r\f(\007\r\f*\006\013\n*\377\n\016&\007\007\007\007\204\n\020$\204\n\f \377\n\022&\200\200\200\200\007\000\001\322\b\007\034\004\006\000\001\322\006\005$\004\377\016\020*\200\200\200\200\377\f\022*\200\200\200\200\007\000\355\321\001\005\036\004\b\000\355\321\003\t\"\004\006\000\355\321\001\005\032\004\t\000\355\321\003\t&\004\b\017\016(\t\r\f(\007\r\f*\006\013\n*\377\n\016&\007\007\007\007\204\n\020$\204\n\f \377\n\022&\200\200\200\200\007\000\001\322\b\007\034\004\006\000\001\322\006\005$\004\377\016\020*\200\200\200\200\377\f\022*\200\200\200\200\007\000\355\321\001\005\036\004\b\000\355\321\003\t\"\004\006\000\355\321\001\005\032\004\t\000\355\321\003\t&\004\b\017\016(\t\r\f(\007\r\f*\006\013\n*\377\n\016&\007\007\007\007\204\n\020$\204\n\f \377\n\022&\200\200\200\200\007\000\001\322\b\007\034\004\006\000\001\322\006\005$\004\377\016\020*\200\200\200\200\377\f\022*\200\200\200\200\007\000\355\321\001\005\036\004\b\000\355\321\003\t\"\004\006\000\355\321\001\005\032\004\t\000\355\321\003\t&\004\b\017\016(\t\r\f(\007\r\f*\006\013\n*\377\n\016&\007\007\007\007\204\n\020$\204\n\f \377\n\022&\200\200\200\200\007\000\001\322\b\007\034\004\006\000\001\322\006\005$\004\377\016\020*\200\200\200\200\377\f\022*\200\200\200\200\007\000\355\321\001\005\036\004\b\000\355\321\003\t\"\004\006\000\355\321\001\005\032\004\t\000\355\321\003\t&\004\b\017\016(\t\r\f(\007\r\f*\006\013\n*\377\n\016&\007\007\007\007\204\n\020$\204\n\f \377\n\022&\200\200\200\200\007\000\001\322\b\007\034\004\006\000\001\322\006\005$\004\377\016\020*\200\200\200\200\377\f\022*\200\200\200\200\007\000\355\321\001\005\036\004\b\000\355\321\003\t\"\004\006\000\355\321\001\005\032\004\t\000\355\321\003\t&\004\b\017\016(\t\r\f(\007\r\f*\006\013\n*\377\n\016&\007\007\007\007\204\n\020$\204\n\f \377\n\022&\200\200\200\200\007\000\001\322\b\007\034\004\006\000\001\322\006\005$\004\377\016\020*\200\200\200\200\377\f\022*\200\200\200\200\007\000\355\321\001\005\036\004\b\000\355\321\003\t\"\004\006\000\355\321\001\005\032\004\t\000\355\321\003\t&\004\b\017\016(\t\r\f(\007\r\f*\006\013\n*\377\n\016&\007\007\007\007\204\n\020$\204\n\f \377\n\022&\200\200\200\200\007\000\001\322\b\007\034\004\006\000\001\322\006\005$\004\377\016\020*\200\200\200\200\377\f\022*\200\200\200\200\007\000\355\321\001\005\036\004\b\000\355\321\003\t\"\004\006\000\355\321\001\005\032\004\t\000\355\321\003\t&\004\b\017\016(\t\r\f(\007\r\f*\006\013\n*\377\n\016&\007\007\007\007\204\n\020$\204\n\f \377\n\022&\200\200\200\200\007\000\001\322\b\007\034\004\006\000\001\322\006\005$\004\377\016\020*\200\200\200\200\377\f\022*\200\200\200\200\007\000\355\321\001\005\036\004\b\000\355\321\003\t\"\004\006\000\355\321\001\005\032\004\t\000\355\321\003\t&\004\b\017\016(\t\r\f(\007\r\f*\006\013\n*\377\n\016&\007\007\007\007\204\n\020$\204\n\f \377\n\022&\200\200\200\200\007\000\001\322\b\007\034\004\006\000\001\322\006\005$\004\377\016\020*\200\200\200\200\377\f\022*\200\200\200\200\007\000\355\321\001\005\036\004\b\000\355\321\003\t\"\004\006\000\355\321\001\005\032\004\t\000\355\321\003\t&\004\b\017\016(\t\r\f(\007\r\f*\006\013\n*\377\n\016&\007\007\007\007\204\n\020$\204\n\f \377\n\022&\200\200\200\200\007\000\001\322\b\007\034\004\006\000\001\322\006\005$\004\377\016\020*\200\200\200\200\377\f\022*\200\200\200\200\007\000\355\321\001\005\036\004\b\000\355\321\003\t\"\004\006\000\355\321\001\005\032\004\t\000\355\321\003\t&\004\b\017\016(\t\r\f(\007\r\f*\006\013\n*\377\n\016&\007\007\007\007\204\n\020$\204\n\f \377\n\022&\200\200\200\200\007\000\001\322\b\007\034\004\006\000\001\322\006\005$\004\377\016\020*\200\200\200\200\377\f\022*\200\200\200\200\007\000\355\321\001\005\036\004\b\000\355\321\003\t\"\004\006\000\355\321\001\005\032\004\t\000\355\321\003\t&\004\b\017\016(\t\r\f(\007\r\f*\006\013\n*\377\n\016&\007\007\007\007\204\n\020$\204\n\f \377\n\022&\200\200\200\200\007\000\001\322\b\007\034\004\006\000\001\322\006\005$\004\377\016\020*\200\200\200\200\377\f\022*\200\200\200\200\007\000\355\321\001\005\036\004\b\000\355\321\003\t\"\004\006\000\355\321\001\005\032\004\t\000\355\321\003\t&\004\b\017\016(\t\r\f(\007\r\f*\006\013\n*\377\n\016&\007\007\007\007\204\n\020$\204\n\f \377\n\022&\200\200\200\200\007\000\001\322\b\007\034\004\006\000\001\322\006\005$\004\377\016\020*\200\200\200\200\377\f\022*\200\200\200\200\007\000\355\321\001\005\036\004\b\000\355\321\003\t\"\004\006\000\355\321\001\005\032\004\t\000\355\321\003\t&\004\b\017\016(\t\r\f(\007\r\f*\006\013\n*\377\n\016&\007\007\007\007\204\n\020$\204\n\f \377\n\022&\200\200\200\200\007\000\001\322\b\007\034\004\006\000\001\322\006\005$\004\377\016\020*\200\200\200\200\377\f\022*\200\200\200\200\007\000\355\321\001\005\036\004\b\000\355\321\003\t\"\004\006\000\355\321\001\005\032\004\t\000\355\321\003\t&\004\b\017\016(\t\r\f(\007\r\f*\006\013\n*\377\n\016&\007\007\007\007\204\n\020$\204\n\f \377\n\022&\200\200\200\200\007\000\001\322\b\007\034\004\006\000\001\322\006\005$\004\377\016\020*\200\200\200\200\377\f\022*\200\200\200\200\007\000\355\321\001\005\036\004\b\000\355\321\003\t\"\004\006\000\355\321\001\005\032\004\t\000\355\321\003\t&\004\b\017\016(\t\r\f(\007\r\f*\006\013\n*\377\n\016&\007\007\007\007\204\n\020$\204\n\f \377\n\022&\200\200\200\200\007\000\001\322\b\007\034\004\006\000\001\322\006\005$\004\377\016\020*\200\200\200\200\377\f\022*\200\200\200\200\007\000\355\321\001\005\036\004\b\000\355\321\003\t\"\004\006\000\355\321\001\005\032\004\t\000\355\321\003\t&\004\b\017\016(\t\r\f(\007\r\f*\006\013\n*\377\n\016&\007\007\007\007\204\n\020$\204\n\f \377\n\022&\200\200\200\200\007\000\001\322\b\007\034\004\006\000\001\322\006\005$\004\377\016\020*\200\200\200\200\377\f\022*\200\200\200\200\007\000\355\321\001\005\036\004\b\000\355\321\003\t\"\004\006\000\355\321\001\005\032\004\t\000\355\321\003\t&\004\b\017\016(\t\r\f(\007\r\f*\006\013\n*\377\n\016&\007\007\007\007\204\n\020$\204\n\f \377\n\022&\200\200\200\200\007\000\001\322\b\007\034\004\006\000\001\322\006\005$\004\377\016\020*\200\200\200\200\377\f\022*\200\200\200\200\007\000\355\321\001\005\036\004\b\000\355\321\003\t\"\004\006\000\355\321\001\005\032\004\t\000\355\321\003\t&\004\b\017\016(\t\r\f(\007\r\f*\006\013\n*\377\n\016&\007\007\007\007\204\n\020$\204\n\f \377\n\022&\200\200\200\200\007\000\001\322\b\007\034\004\006\000\001\322\006\005$\004\377\016\020*\200\200\200\200\377\f\022*\200\200\200\200\007\000\355\321\001\005\036\004\b\000\355\321\003\t\"\004\006\000\355\321\001\005\032\004\t\000\355\321\003\t&\004\b\017\016(\t\r\f(\007\r\f*\006\013\n*\377\n\016&\007\007\007\007\204\n\020$\204\n\f \377\n\022&\200\200\200\200\007\000\001\322\b\007\034\004\006\000\001\322\006\005$\004\377\016\020*\200\200\200\200\377\f\022*\200\200\200\200\007\000\355\321\001\005\036\004\b\000\355\321\003\t\"\004\006\000\355\321\001\005\032\004\t\000\355\321\003\t&\004\b\017\016(\t\r\f(\007\r\f*\006\013\n*\377\n\016&\007\007\007\007\204\n\020$\204\n\f \377\n\022&\200\200\200\200\007\000\001\322\b\007\034\004\006\000\001\322\006\005$\004\377\016\020*\200\200\200\200\377\f\022*\200\200\200\200\007\000\355\321\001\005\036\004\b\000\355\321\003\t\"\004\006\000\355\321\001\005\032\004\t\000\355\321\003\t&\004\b\017\016(\t\r\f(\007\r\f*\006\013\n*\377\n\016&\007\007\007\007\204\n\020$\204\n\f \377\n\022&\200\200\200\200\007\000\001\322\b\007\034\004\006\000\001\322\006\005$\004\377\016\020*\200\200\200\200\377\f\022*\200\200\200\200\007\000\355\321\001\005\036\004\b\000\355\321\003\t\"\004\006\000\355\321\001\005\032\004\t\000\355\321\003\t&\004\b\017\016(\t\r\f(\007\r\f*\006\013\n*\377\n\016&\007\007\007\007\204\n\020$\204\n\f \377\n\022&\200\200\200\200\007\000\001\322\b\007\034\004\006\000\001\322\006\005$\004\377\016\020*\200\200\200\200\377\f\022*\200\200\200\200\007\000\355\321\001\005\036\004\b\000\355\321\003\t\"\004\006\000\355\321\001\005\032\004\t\000\355\321\003\t&\004\b\017\016(\t\r\f(\007\r\f*\006\013\n*\377\n\016&\007\007\007\007\204\n\020$\204\n\f \377\n\022&\200\200\200\200\007\000\001\322\b\007\034\004\006\000\001\322\006\005$\004\377\016\020*\200\200\200\200\377\f\022*\200\200\200\200\007\000\355\321\001\005\036\004\b\000\355\321\003\t\"\004\006\000\355\321\001\005\032\004\t\000\355\321\003\t&\004\b\017\016(\t\r\f(\007\r\f*\006\013\n*\377\n\016&\007\007\007\007\204\n\020$\204\n\f \377\n\022&\200\200\200\200\007\000\001\322\b\007\034\004\006\000\001\322\006\005$\004\377\016\020*\200\200\200\200\377\f\022*\200\200\200\200\007\000\355\321\001\005\036\004\b\000\355\321\003\t\"\004\006\000\355\321\001\005\032\004\t\000\355\321\003\t&\004\b\017\016(\t\r\f(\007\r\f*\006\013\n*\377\n\016&\007\007\007\007\204\n\020$\204\n\f \377\n\022&\200\200\200\200\007\000\001\322\b\007\034\004\006\000\001\322\006\005$\004\377\016\020*\200\200\200\200\377\f\022*\200\200\200\200\007\000\355\321\001\005\036\004\b\000\355\321\003\t\"\004\006\000\355\321\001\005\032\004\t\000\355\321\003\t&\004\b\017\016(\t\r\f(\007\r\f*\006\013\n*\377\n\016&\007\007\007\007\204\n\020$\204\n\f \377\n\022&\200\200\200\200\007\000\001\322\b\007\034\004\006\000\001\322\006\005$\004\377\016\020*\200\200\200\200\377\f\022*\200\200\200\200\007\000\355\321\001\005\036\004\b\000\355\321\003\t\"\004\006\000\355\321\001\005\032\004\t\000\355\321\003\t&\004\b\017\016(\t\r\f(\007\r\f*\006\013\n*\377\n\016&\007\007\007\007\204\n\020$\204\n\f \377\n\022&\200\200\200\200\007\000\001\322\b\007\034\004\006\000\001\322\006\005$\004\377\016\020*\200\200\200\200\377\f\022*\200\200\200\200\007\000\355\321\001\005\036\004\b\000\355\321\003\t\"\004\006\000\355\321\001\005\032\004\t\000\355\321\003\t&\004\b\017\016(\t\r\f(\007\r\f*\006\013\n*\377\n\016&\007\007\007\007\204\n\020$\204\n\f \377\n\022&\200\200\200\200\007\000\001\322\b\007\034\004\006\000\001\322\006\005$\004\377\016\020*\200\200\200\200\377\f\022*\200\200\200\200\007\000\355\321\001\005\036\004\b\000\355\321\003\t\"\004\006\000\355\321\001\005\032\004\t\000\355\321\003\t&\004\b\017\016(\t\r\f(\007\r\f*\006\013\n*\377\n\016&\007\007\007\007\204\n\020$\204\n\f \377\n\022&\200\200\200\200\007\000\001\322\b\007\034\004\006\000\001\322\006\005$\004\377\016\020*\200\200\200\200\377\f\022*\200\200\200\200\007\000\355\321\001\005\036\004\b\000\355\321\003\t\"\004\006\000\355\321\001\005\032\004\t\000\355\321\003\t&\004\b\017\016(\t\r\f(\007\r\f*\006\013\n*\377\n\016&\007\007\007\007\204\n\020$\204\n\f \377\n\022&\200\200\200\200\007\000\001\322\b\007\034\004\006\000\001\322\006\005$\004\377\016\020*\200\200\200\200\377\f\022*\200\200\200\200\007\000\355\321\001\005\036\004\b\000\355\321\003\t\"\004\006\000\355\321\001\005\032\004\t\000\355\321\003\t&\004\b\017\016(\t\r\f(\007\r\f*\006\013\n*\377\n\016&\007\007\007\007\204\n\020$\204\n\f \377\n\022&\200\200\200\200\007\000\001\322\b\007\034\004\006\000\001\322\006\005$\004\377\016\020*\200\200\200\200\377\f\022*\200\200\200\200\007\000\355\321\001\005\036\004\b\000\355\321\003\t\"\004\006\000\355\321\001\005\032\004\t\000\355\321\003\t&\004\b\017\016(\t\r\f(\007\r\f*\006\013\n*\377\n\016&\007\007\007\007\204\n\020$\204\n\f \377\n\022&\200\200\200\200\007\000\001\322\b\007\034\004\006\000\001\322\006\005$\004\377\016\020*\200\200\200\200\377\f\022*\200\200\200\200\007\000\355\321\001\005\036\004\b\000\355\321\003\t\"\004\006\000\355\321\001\005\032\004\t\000\355\321\003\t&\004\b\017\016(\t\r\f(\007\r\f*\006\013\n*\377\n\016&\007\007\007\007\204\n\020$\204\n\f \377\n\022&\200\200\200\200\007\000\001\322\b\007\034\004\006\000\001\322\006\005$\004\377\016\020*\200\200\200\200\377\f\022*\200\200\200\200\007\000\355\321\001\005\036\004\b\000\355\321\003\t\"\004\006\000\355\321\001\005\032\004\t\000\355\321\003\t&\004\b\017\016(\t\r\f(\007\r\f*\006\013\n*\377\n\016&\007\007\007\007\204\n\020$\204\n\f \377\n\022&\200\200\200\200\007\000\001\322\b\007\034\004\006\000\001\322\006\005$\004\377\016\020*\200\200\200\200\377\f\022*\200\200\200\200\007\000\355\321\001\005\036\004\b\000\355\321\003\t\"\004\006\000\355\321\001\005\032\004\t\000\355\321\003\t&\004\b\017\016(\t\r\f(\007\r\f*\006\013\n*\377\n\016&\007\007\007\007\204\n\020$\204\n\f \377\n\022&\200\200\200\200\007\000\001\322\b\007\034\004\006\000\001\322\006\005$\004\377\016\020*\200\200\200\200\377\f\022*\200\200\200\200\007\000\355\321\001\005\036\004\b\000\355\321\003\t\"\004\006\000\355\321\001\005\032\004\t\000\355\321\003\t&\004\b\017\016(\t\r\f(\007\r\f*\006\013\n*\377\n\016&\007\007\007\007\204\n\020$\204\n\f \377\n\022&\200\200\200\200\007\000\001\322\b\007\034\004\006\000\001\322\006\005$\004\377\016\020*\200\200\200\200\377\f\022*\200\200\200\200\007\000\355\321\001\005\036\004\b\000\355\321\003\t\"\004\006\000\355\321\001\005\032\004\t\000\355\321\003\t&\004\b\017\016(\t\r\f(\007\r\f*\006\013\n*\377\n\016&\007\007\007\007\204\n\020$\204\n\f \377\n\022&\200\200\200\200\007\000\001\322\b\007\034\004\006\000\001\322\006\005$\004\377\016\020*\200\200\200\200\377\f\022*\200\200\200\200\007\000\355\321\001\005\036\004\b\000\355\321\003\t\"\004\006\000\355\321\001\005\032\004\t\000\355\321\003\t&\004\b\017\016(\t\r\f(\007\r\f*\006\013\n*\377\n\016&\007\007\007\007\204\n\020$\204\n\f \377\n\022&\200\200\200\200\007\000\001\322\b\007\034\004\006\000\001\322\006\005$\004\377\016\020*\200\200\200\200\377\f\022*\200\200\200\200\007\000\355\321\001\005\036\004\b\000\355\321\003\t\"\004\006\000\355\321\001\005\032\004\t\000\355\321\003\t&\004\b\017\016(\t\r\f(\007\r\f*\006\013\n*\377\n\016&\007\007\007\007\204\n\020$\204\n\f \377\n\022&\200\200\200\200\007\000\001\322\b\007\034\004\006\000\001\322\006\005$\004\377\016\020*\200\200\200\200\377\f\022*\200\200\200\200\007\000\355\321\001\005\036\004\b\000\355\321\003\t\"\004\006\000\355\321\001\005\032\004\t\000\355\321\003\t&\004\b\017\016(\t\r\f(\007\r\f*\006\013\n*\377\n\016&\007\007\007\007\204\n\020$\204\n\f \377\n\022&\200\200\200\200\007\000\001\322\b\007\034\004\006\000\001\322\006\005$\004\377\016\020*\200\200\200\200\377\f\022*\200\200\200\200\007\000\355\321\001\005\036\004\b\000\355\321\003\t\"\004\006\000\355\321\001\005\032\004\t\000\355\321\003\t&\004\b\017\016(\t\r\f(\007\r\f*\006\013\n*\377\n\016&\007\007\007\007\204\n\020$\204\n\f \377\n\022&\200\200\200\200\007\000\001\322\b\007\034\004\006\000\001\322\006\005$\004\377\016\020*\200\200\200\200\377\f\022*\200\200\200\200\007\000\355\321\001\005\036\004\b\000\355\321\003\t\"\004\006\000\355\321\001\005\032\004\t\000\355\321\003\t&\004\b\017\016(\t\r\f(\007\r\f*\006\013\n*\377\n\016&\007\007\007\007\204\n\020$\204\n\f \377\n\022&\200\200\200\200\007\000\001\322\b\007\034\004\006\000\001\322\006\005$\004\377\016\020*\200\200\200\200\377\f\022*\200\200\200\200\007\000\355\321\001\005\036\004\b\000\355\321\003\t\"\004\006\000\355\321\001\005\032\004\t\000\355\321\003\t&\004\b\017\016(\t\r\f(\007\r\f*\006\013\n*\377\n\016&\007\007\007\007\204\n\020$\204\n\f \377\n\022&\200\200\200\200\007\000\001\322\b\007\034\004\006\000\001\322\006\005$\004\377\016\020*\200\200\200\200\377\f\022*\200\200\200\200\007\000\355\321\001\005\036\004\b\000\355\321\003\t\"\004\006\000\355\321\001\005\032\004\t\000\355\321\003\t&\004\b\017\016(\t\r\f(\007\r\f*\006\013\n*\377\n\016&\007\007\007\007\204\n\020$\204\n\f \377\n\022&\200\200\200\200\007\000\001\322\b\007\034\004\006\000\001\322\006\005$\004\377\016\020*\200\200\200\200\377\f\022*\200\200\200\200\007\000\355\321\001\005\036\004\b\000\355\321\003\t\"\004\006\000\355\321\001\005\032\004\t\000\355\321\003\t&\004\b\017\016(\t\r\f(\007\r\f*\006\013\n*\377\n\016&\007\007\007\007\204\n\020$\204\n\f \377\n\022&\200\200\200\200\007\000\001\322\b\007\034\004\006\000\001\322\006\005$\004\377\016\020*\200\200\200\200\377\f\022*\200\200\200\200\007\000\355\321\001\005\036\004\b\000\355\321\003\t\"\004\006\000\355\321\001\005\032\004\t\000\355\321\003\t&\004\b\017\016(\t\r\f(\007\r\f*\006\013\n*\377\n\016&\007\007\007\007\204\n\020$\204\n\f \377\n\022&\200\200\200\200\007\000\001\322\b\007\034\004\006\000\001\322\006\005$\004\377\016\020*\200\200\200\200\377\f\022*\200\200\200\200\007\000\355\321\001\005\036\004\b\000\355\321\003\t\"\004\006\000\355\321\001\005\032\004\t\000\355\321\003\t&\004\b\017\016(\t\r\f(\007\r\f*\006\013\n*\377\n\016&\007\007\007\007\204\n\020$\204\n\f \377\n\022&\200\200\200\200\007\000\001\322\b\007\034\004\006\000\001\322\006\005$\004\377\016\020*\200\200\200\200\377\f\022*\200\200\200\200\007\000\355\321\001\005\036\004\b\000\355\321\003\t\"\004\006\000\355\321\001\005\032\004\t\000\355\321\003\t&\004\b\017\016(\t\r\f(\007\r\f*\006\013\n*\377\n\016&\007\007\007\007\204\n\020$\204\n\f \377\n\022&\200\200\200\200\007\000\001\322\b\007\034\004\006\000\001\322\006\005$\004\377\016\020*\200\200\200\200\377\f\022*\200\200\200\200\007\000\355\321\001\005\036\004\b\000\355\321\003\t\"\004\006\000\355\321\001\005\032\004\t\000\355\321\003\t&\004\b\017\016(\t\r\f(\007\r\f*\006\013\n*\377\n\016&\007\007\007\007\204\n\020$\204\n\f \377\n\022&\200\200\200\200\007\000\001\322\b\007\034\004\006\000\001\322\006\005$\004\377\016\020*\200\200\200\200\377\f\022*\200\200\200\200\007\000\355\321\001\005\036\004\b\000\355\321\003\t\"\004\006\000\355\321\001\005\032\004\t\000\355\321\003\t&\004\b\017\016(\t\r\f(\007\r\f*\006\013\n*\377\n\016&\007\007\007\007\204\n\020$\204\n\f \377\n\022&\200\200\200\200\007\000\001\322\b\007\034\004\006\000\001\322\006\005$\004\377\016\020*\200\200\200\200\377\f\022*\200\200\200\200\007\000\355\321\001\005\036\004\b\000\355\321\003\t\"\004\006\000\355\321\001\005\032\004\t\000\355\321\003\t&\004\b\017\016(\t\r\f(\007\r\f*\006\013\n*\377\n\016&\007\007\007\007\204\n\020$\204\n\f \377\n\022&\200\200\200\200\007\000\001\322\b\007\034\004\006\000\001\322\006\005$\004\377\016\020*\200\200\200\200\377\f\022*\200\200\200\200\007\000\355\321\001\005\036\004\b\000\355\321\003\t\"\004\006\000\355\321\001\005\032\004\t\000\355\321\003\t&\004\b\017\016(\t\r\f(\007\r\f*\006\013\n*\377\n\016&\007\007\007\007\204\n\020$\204\n\f \377\n\022&\200\200\200\200\007\000\001\322\b\007\034\004\006\000\001\322\006\005$\004\377\016\020*\200\200\200\200\377\f\022*\200\200\200\200\007\000\355\321\001\005\036\004\b\000\355\321\003\t\"\004\006\000\355\321\001\005\032\004\t\000\355\321\003\t&\004\b\017\016(\t\r\f(\007\r\f*\006\013\n*\377\n\016&\007\007\007\007\204\n\020$\204\n\f \377\n\022&\200\200\200\200\007\000\001\322\b\007\034\004\006\000\001\322\006\005$\004\377\016\020*\200\200\200\200\377\f\022*\200\200\200\200\007\000\355\321\001\005\036\004\b\000\355\321\003\t\"\004\006\000\355\321\001\005\032\004\t\000\355\321\003\t&\004\b\017\016(\t\r\f(\007\r\f*\006\013\n*\377\n\016&\007\007\007\007\204\n\020$\204\n\f \377\n\022&\200\200\200\200\007\000\001\322\b\007\034\004\006\000\001\322\006\005$\004\377\016\020*\200\200\200\200\377\f\022*\200\200\200\200\007\000\355\321\001\005\036\004\b\000\355\321\003\t\"\004\006\000\355\321\001\005\032\004\t\000\355\321\003\t&\004\b\017\016(\t\r\f(\007\r\f*\006\013\n*\377\n\016&\007\007\007\007\204\n\020$\204\n\f \377\n\022&\200\200\200\200\007\000\001\322\b\007\034\004\006\000\001\322\006\005$\004\377\016\020*\200\200\200\200\377\f\022*\200\200\200\200\007\000\355\321\001\005\036\004\b\000\355\321\003\t\"\004\006\000\355\321\001\005\032\004\t\000\355\321\003\t&\004\b\017\016(\t\r\f(\007\r\f*\006\013\n*\377\n\016&\007\007\007\007\204\n\020$\204\n\f \377\n\022&\200\200\200\200\007\000\001\322\b\007\034\004\006\000\001\322\006\005$\004\377\016\020*\200\200\200\200\377\f\022*\200\200\200\200\007\000\355\321\001\005\036\004\b\000\355\321\003\t\"\004\006\000\355\321\001\005\032\004\t\000\355\321\003\t&\004\b\017\016(\t\r\f(\007\r\f*\006\013\n*\377\n\016&\007\007\007\007\204\n\020$\204\n\f \377\n\022&\200\200\200\200\007\000\001\322\b\007\034\004\006\000\001\322\006\005$\004\377\016\020*\200\200\200\200\377\f\022*\200\200\200\200\007\000\355\321\001\005\036\004\b\000\355\321\003\t\"\004\006\000\355\321\001\005\032\004\t\000\355\321\003\t&\004\b\017\016(\t\r\f(\007\r\f*\006\013\n*\377\n\016&\007\007\007\007\204\n\020$\204\n\f \377\n\022&\200\200\200\200\007\000\001\322\b\007\034\004\006\000\001\322\006\005$\004\377\016\020*\200\200\200\200\377\f\022*\200\200\200\200\007\000\355\321\001\005\036\004\b\000\355\321\003\t\"\004\006\000\355\321\001\005\032\004\t\000\355\321\003\t&\004\b\017\016(\t\r\f(\007\r\f*\006\013\n*\377\n\016&\007\007\007\007\204\n\020$\204\n\f \377\n\022&\200\200\200\200\007\000\001\322\b\007\034\004\006\000\001\322\006\005$\004\377\016\020*\200\200\200\200\377\f\022*\200\200\200\200\007\000\355\321\001\005\036\004\b\000\355\321\003\t\"\004\006\000\355\321\001\005\032\004\t\000\355\321\003\t&\004\b\017\016(\t\r\f(\007\r\f*\006\013\n*\377\n\016&\007\007\007\007\204\n\020$\204\n\f \377\n\022&\200\200\200\200\007\000\001\322\b\007\034\004\006\000\001\322\006\005$\004\377\016\020*\200\200\200\200\377\f\022*\200\200\200\200\007\000\355\321\001\005\036\004\b\000\355\321\003\t\"\004\006\000\355\321\001\005\032\004\t\000\355\321\003\t&\004\b\017\016(\t\r\f(\007\r\f*\006\013\n*\377\n\016&\007\007\007\007\204\n\020$\204\n\f \377\n\022&\200\200\200\200\007\000\001\322\b\007\034\004\006\000\001\322\006\005$\004\377\016\020*\200\200\200\200\377\f\022*\200\200\200\200\007\000\355\321\001\005\036\004\b\000\355\321\003\t\"\004\006\000\355\321\001\005\032\004\t\000\355\321\003\t&\004\b\017\016(\t\r\f(\007\r\f*\006\013\n*\377\n\016&\007\007\007\007\204\n\020$\204\n\f \377\n\022&\200\200\200\200\007\000\001\322\b\007\034\004\006\000\001\322\006\005$\004\377\016\020*\200\200\200\200\377\f\022*\200\200\200\200\007\000\355\321\001\005\036\004\b\000\355\321\003\t\"\004\006\000\355\321\001\005\032\004\t\000\355\321\003\t&\004\b\017\016(\t\r\f(\007\r\f*\006\013\n*\377\n\016&\007\007\007\007\204\n\020$\204\n\f \377\n\022&\200\200\200\200\007\000\001\322\b\007\034\004\006\000\001\322\006\005$\004\377\016\020*\200\200\200\200\377\f\022*\200\200\200\200\007\000\355\321\001\005\036\004\b\000\355\321\003\t\"\004\006\000\355\321\001\005\032\004\t\000\355\321\003\t&\004\b\017\016(\t\r\f(\007\r\f*\006\013\n*\377\n\016&\007\007\007\007\204\n\020$\204\n\f \377\n\022&\200\200\200\200\007\000\001\322\b\007\034\004\006\000\001\322\006\005$\004\377\016\020*\200\200\200\200\377\f\022*\200\200\200\200\007\000\355\321\001\005\036\004\b\000\355\321\003\t\"\004\006\000\355\321\001\005\032\004\t\000\355\321\003\t&\004\b\017\016(\t\r\f(\007\r\f*\006\013\n*\377\n\016&\007\007\007\007\204\n\020$\204\n\f \377\n\n&\200\200\200\200\007\000\001\322\b\007\034\004\005\000\001\322\006\005\024\004\377\016\f*\200\200\200\200\377\n\020*\200\200\200\200\007\000\355\321\001\005\036\004\006\000\355\321\003\t\032\004\002\000\355\321\001\005\026\004\003\000\355\321\003\t\"\004\003\005\004(\201\000\006$\237\006\b\"\003\000\217\322\202\006\002\000\001\002\000~\000\006\0062\006\017\002(\000\t\b8\000\200t\334\003\001\177\000\000\000\201\277\000\000\200\277\000\000\200\277\000\000\200\277\000\000\200\277\000\000\200\277\000\000\200\277\000\000\200\277\000\000\200\277\000\000\200\277\000\000\200\277\000\000\200\277\000\000\200\277\000\000\200\277\000\000\200\277\000\000\200\277\000\000\200\277\000\000\200\277\000\000\200\277\000\000\200\277\000\000\200\277\000\000\200\277\000\000\200\277\000\000\200\277\000\000\200\277\000\000\200\277\000\000\200\277\000\000\200\277\000\000\200\277\000\000\200\277\000\000\200\277\000\000\200\277\000\000\200\277\000\000\200\277\000\000\200\277\000\000\200\277\000\000\200\277\000\000\200\277\000\000\200\277\000\000\200\277\000\000\200\277\000\000\200\277\000\000\200\277\000\000\200\277\000\000\200\277\002\000\002\300$\000\000\000B\000\002\300\020\000\000\000\177\300\214\277\000\377\000\206\377\377\000\000\006\000\006\222\006\000\000h\001\000\210}j \200\276o\013\210\277\002\000\n\300\000\000\000\000\237\000\002\"\001\000\217\322\202\000\002\000\377\002\b~\000\377\376\375\177\300\214\277\003\002\006~\002\002\0022\003\005\0048\000\200P\334\001\000\177\005\377\002\002~\004\006\b\f\377\002\004~\000\001\002\003\377\002\006~\374\372\370\364p\017\214\277\204\n\f \377\n\016&\007\007\007\007\377\n\020&\b\b\b\b\377\f\022&\007\007\007\007\377\f\f&\b\b\b\b\007\000\375\321\b\t\035\004\006\000\375\321\006\t%\004\377\016\020*\200\200\200\200\007\000\355\321\001\005\036\004\377\f\022*\200\200\200\200\b\000\355\321\003\t\"\004\006\000\355\321\001\005\032\004\t\000\355\321\003\t&\004\b\017\016(\t\r\f(\007\r\f*\006\013\n*\204\n\f \377\n\016&\007\007\007\007\377\n\020&\b\b\b\b\377\f\022&\007\007\007\007\377\f\f&\b\b\b\b\007\000\375\321\b\t\035\004\006\000\375\321\006\t%\004\377\016\020*\200\200\200\200\007\000\355\321\001\005\036\004\377\f\022*\200\200\200\200\b\000\355\321\003\t\"\004\006\000\355\321\001\005\032\004\t\000\355\321\003\t&\004\b\017\016(\t\r\f(\007\r\f*\006\013\n*\204\n\f \377\n\016&\007\007\007\007\377\n\020&\b\b\b\b\377\f\022&\007\007\007\007\377\f\f&\b\b\b\b\007\000\375\321\b\t\035\004\006\000\375\321\006\t%\004\377\016\020*\200\200\200\200\007\000\355\321\001\005\036\004\377\f\022*\200\200\200\200\b\000\355\321\003\t\"\004\006\000\355\321\001\005\032\004\t\000\355\321\003\t&\004\b\017\016(\t\r\f(\007\r\f*\006\013\n*\204\n\f \377\n\016&\007\007\007\007\377\n\020&\b\b\b\b\377\f\022&\007\007\007\007\377\f\f&\b\b\b\b\007\000\375\321\b\t\035\004\006\000\375\321\006\t%\004\377\016\020*\200\200\200\200\007\000\355\321\001\005\036\004\377\f\022*\200\200\200\200\b\000\355\321\003\t\"\004\006\000\355\321\001\005\032\004\t\000\355\321\003\t&\004\b\017\016(\t\r\f(\007\r\f*\006\013\n*\204\n\f \377\n\016&\007\007\007\007\377\n\020&\b\b\b\b\377\f\022&\007\007\007\007\377\f\f&\b\b\b\b\007\000\375\321\b\t\035\004\006\000\375\321\006\t%\004\377\016\020*\200\200\200\200\007\000\355\321\001\005\036\004\377\f\022*\200\200\200\200\b\000\355\321\003\t\"\004\006\000\355\321\001\005\032\004\t\000\355\321\003\t&\004\b\017\016(\t\r\f(\007\r\f*\006\013\n*\204\n\f \377\n\016&\007\007\007\007\377\n\020&\b\b\b\b\377\f\022&\007\007\007\007\377\f\f&\b\b\b\b\007\000\375\321\b\t\035\004\006\000\375\321\006\t%\004\377\016\020*\200\200\200\200\007\000\355\321\001\005\036\004\377\f\022*\200\200\200\200\b\000\355\321\003\t\"\004\006\000\355\321\001\005\032\004\t\000\355\321\003\t&\004\b\017\016(\t\r\f(\007\r\f*\006\013\n*\204\n\f \377\n\016&\007\007\007\007\377\n\020&\b\b\b\b\377\f\022&\007\007\007\007\377\f\f&\b\b\b\b\007\000\375\321\b\t\035\004\006\000\375\321\006\t%\004\377\016\020*\200\200\200\200\007\000\355\321\001\005\036\004\377\f\022*\200\200\200\200\b\000\355\321\003\t\"\004\006\000\355\321\001\005\032\004\t\000\355\321\003\t&\004\b\017\016(\t\r\f(\007\r\f*\006\013\n*\204\n\f \377\n\016&\007\007\007\007\377\n\020&\b\b\b\b\377\f\022&\007\007\007\007\377\f\f&\b\b\b\b\007\000\375\321\b\t\035\004\006\000\375\321\006\t%\004\377\016\020*\200\200\200\200\007\000\355\321\001\005\036\004\377\f\022*\200\200\200\200\b\000\355\321\003\t\"\004\006\000\355\321\001\005\032\004\t\000\355\321\003\t&\004\b\017\016(\t\r\f(\007\r\f*\006\013\n*\204\n\f \377\n\016&\007\007\007\007\377\n\020&\b\b\b\b\377\f\022&\007\007\007\007\377\f\f&\b\b\b\b\007\000\375\321\b\t\035\004\006\000\375\321\006\t%\004\377\016\020*\200\200\200\200\377\f\022*\200\200\200\200\007\000\355\321\001\005\036\004\b\000\355\321\003\t\"\004\006\000\355\321\001\005\032\004\t\000\355\321\003\t&\004\b\017\016(\t\r\f(\007\r\f*\006\013\n*\204\n\f \377\n\016&\007\007\007\007\377\f\020&\007\007\007\007\377\f\f&\b\b\b\b\377\n\022&\b\b\b\b\007\000\375\321\t\t\035\004\006\000\375\321\006\t!\004\377\016\020*\200\200\200\200\377\f\022*\200\200\200\200\007\000\355\321\001\005\036\004\b\000\355\321\003\t\"\004\006\000\355\321\001\005\032\004\t\000\355\321\003\t&\004\b\017\016(\t\r\f(\007\r\f*\006\013\n*\204\n\f \377\n\016&\007\007\007\007\377\f\020&\007\007\007\007\377\f\f&\b\b\b\b\377\n\022&\b\b\b\b\007\000\375\321\t\t\035\004\006\000\375\321\006\t!\004\377\016\020*\200\200\200\200\377\f\022*\200\200\200\200\007\000\355\321\001\005\036\004\b\000\355\321\003\t\"\004\006\000\355\321\001\005\032\004\t\000\355\321\003\t&\004\b\017\016(\t\r\f(\007\r\f*\006\013\n*\204\n\f \377\n\016&\007\007\007\007\377\f\020&\007\007\007\007\377\f\f&\b\b\b\b\377\n\022&\b\b\b\b\007\000\375\321\t\t\035\004\006\000\375\321\006\t!\004\377\016\020*\200\200\200\200\377\f\022*\200\200\200\200\007\000\355\321\001\005\036\004\b\000\355\321\003\t\"\004\006\000\355\321\001\005\032\004\t\000\355\321\003\t&\004\b\017\016(\t\r\f(\007\r\f*\006\013\n*\204\n\f \377\n\016&\007\007\007\007\377\f\020&\007\007\007\007\377\f\f&\b\b\b\b\377\n\022&\b\b\b\b\007\000\375\321\t\t\035\004\006\000\375\321\006\t!\004\377\016\020*\200\200\200\200\377\f\022*\200\200\200\200\007\000\355\321\001\005\036\004\b\000\355\321\003\t\"\004\006\000\355\321\001\005\032\004\t\000\355\321\003\t&\004\b\017\016(\t\r\f(\007\r\f*\006\013\n*\204\n\f \377\n\016&\007\007\007\007\377\f\020&\007\007\007\007\377\f\f&\b\b\b\b\377\n\022&\b\b\b\b\007\000\375\321\t\t\035\004\006\000\375\321\006\t!\004\377\016\020*\200\200\200\200\377\f\022*\200\200\200\200\007\000\355\321\001\005\036\004\b\000\355\321\003\t\"\004\006\000\355\321\001\005\032\004\t\000\355\321\003\t&\004\b\017\016(\t\r\f(\007\r\f*\006\013\n*\204\n\f \377\n\016&\007\007\007\007\377\f\020&\007\007\007\007\377\f\f&\b\b\b\b\377\n\022&\b\b\b\b\007\000\375\321\t\t\035\004\006\000\375\321\006\t!\004\377\016\020*\200\200\200\200\377\f\022*\200\200\200\200\007\000\355\321\001\005\036\004\b\000\355\321\003\t\"\004\006\000\355\321\001\005\032\004\t\000\355\321\003\t&\004\b\017\016(\t\r\f(\007\r\f*\006\013\n*\204\n\f \377\n\016&\007\007\007\007\377\f\020&\007\007\007\007\377\f\f&\b\b\b\b\377\n\022&\b\b\b\b\007\000\375\321\t\t\035\004\006\000\375\321\006\t!\004\377\016\020*\200\200\200\200\377\f\022*\200\200\200\200\007\000\355\321\001\005\036\004\b\000\355\321\003\t\"\004\006\000\355\321\001\005\032\004\t\000\355\321\003\t&\004\b\017\016(\t\r\f(\007\r\f*\006\013\n*\204\n\f \377\n\016&\007\007\007\007\377\f\020&\007\007\007\007\377\f\f&\b\b\b\b\377\n\022&\b\b\b\b\007\000\375\321\t\t\035\004\006\000\375\321\006\t!\004\377\016\020*\200\200\200\200\377\f\022*\200\200\200\200\007\000\355\321\001\005\036\004\b\000\355\321\003\t\"\004\006\000\355\321\001\005\032\004\t\000\355\321\003\t&\004\b\017\016(\t\r\f(\007\r\f*\006\013\n*\204\n\f \377\n\016&\007\007\007\007\377\f\020&\007\007\007\007\377\f\f&\b\b\b\b\377\n\022&\b\b\b\b\007\000\375\321\t\t\035\004\006\000\375\321\006\t!\004\377\016\020*\200\200\200\200\377\f\022*\200\200\200\200\007\000\355\321\001\005\036\004\b\000\355\321\003\t\"\004\006\000\355\321\001\005\032\004\t\000\355\321\003\t&\004\b\017\016(\t\r\f(\007\r\f*\006\013\n*\204\n\f \377\n\016&\007\007\007\007\377\f\020&\007\007\007\007\377\f\f&\b\b\b\b\377\n\022&\b\b\b\b\007\000\375\321\t\t\035\004\006\000\375\321\006\t!\004\377\016\020*\200\200\200\200\377\f\022*\200\200\200\200\007\000\355\321\001\005\036\004\b\000\355\321\003\t\"\004\006\000\355\321\001\005\032\004\t\000\355\321\003\t&\004\b\017\016(\t\r\f(\007\r\f*\006\013\n*\204\n\f \377\n\016&\007\007\007\007\377\f\020&\007\007\007\007\377\f\f&\b\b\b\b\377\n\022&\b\b\b\b\007\000\375\321\t\t\035\004\006\000\375\321\006\t!\004\377\016\020*\200\200\200\200\377\f\022*\200\200\200\200\007\000\355\321\001\005\036\004\b\000\355\321\003\t\"\004\006\000\355\321\001\005\032\004\t\000\355\321\003\t&\004\b\017\016(\t\r\f(\007\r\f*\006\013\n*\204\n\f \377\n\016&\007\007\007\007\377\f\020&\007\007\007\007\377\f\f&\b\b\b\b\377\n\022&\b\b\b\b\007\000\375\321\t\t\035\004\006\000\375\321\006\t!\004\377\016\020*\200\200\200\200\377\f\022*\200\200\200\200\007\000\355\321\001\005\036\004\b\000\355\321\003\t\"\004\006\000\355\321\001\005\032\004\t\000\355\321\003\t&\004\b\017\016(\t\r\f(\007\r\f*\006\013\n*\204\n\f \377\n\016&\007\007\007\007\377\f\020&\007\007\007\007\377\f\f&\b\b\b\b\377\n\022&\b\b\b\b\007\000\375\321\t\t\035\004\006\000\375\321\006\t!\004\377\016\020*\200\200\200\200\377\f\022*\200\200\200\200\007\000\355\321\001\005\036\004\b\000\355\321\003\t\"\004\006\000\355\321\001\005\032\004\t\000\355\321\003\t&\004\b\017\016(\t\r\f(\007\r\f*\006\013\n*\204\n\f \377\n\016&\007\007\007\007\377\f\020&\007\007\007\007\377\f\f&\b\b\b\b\377\n\022&\b\b\b\b\007\000\375\321\t\t\035\004\006\000\375\321\006\t!\004\377\016\020*\200\200\200\200\377\f\022*\200\200\200\200\007\000\355\321\001\005\036\004\b\000\355\321\003\t\"\004\006\000\355\321\001\005\032\004\t\000\355\321\003\t&\004\b\017\016(\t\r\f(\007\r\f*\006\013\n*\204\n\f \377\n\016&\007\007\007\007\377\f\020&\007\007\007\007\377\f\f&\b\b\b\b\377\n\022&\b\b\b\b\007\000\375\321\t\t\035\004\006\000\375\321\006\t!\004\377\016\020*\200\200\200\200\377\f\022*\200\200\200\200\007\000\355\321\001\005\036\004\b\000\355\321\003\t\"\004\006\000\355\321\001\005\032\004\t\000\355\321\003\t&\004\b\017\016(\t\r\f(\007\r\f*\006\013\n*\204\n\f \377\n\016&\007\007\007\007\377\f\020&\007\007\007\007\377\f\f&\b\b\b\b\377\n\022&\b\b\b\b\007\000\375\321\t\t\035\004\006\000\375\321\006\t!\004\377\016\020*\200\200\200\200\377\f\022*\200\200\200\200\007\000\355\321\001\005\036\004\b\000\355\321\003\t\"\004\006\000\355\321\001\005\032\004\t\000\355\321\003\t&\004\b\017\016(\t\r\f(\007\r\f*\006\013\n*\204\n\f \377\n\016&\007\007\007\007\377\f\020&\007\007\007\007\377\f\f&\b\b\b\b\377\n\022&\b\b\b\b\007\000\375\321\t\t\035\004\006\000\375\321\006\t!\004\377\016\020*\200\200\200\200\377\f\022*\200\200\200\200\007\000\355\321\001\005\036\004\b\000\355\321\003\t\"\004\006\000\355\321\001\005\032\004\t\000\355\321\003\t&\004\b\017\016(\t\r\f(\007\r\f*\006\013\n*\204\n\f \377\n\016&\007\007\007\007\377\f\020&\007\007\007\007\377\f\f&\b\b\b\b\377\n\022&\b\b\b\b\007\000\375\321\t\t\035\004\006\000\375\321\006\t!\004\377\016\020*\200\200\200\200\377\f\022*\200\200\200\200\007\000\355\321\001\005\036\004\b\000\355\321\003\t\"\004\006\000\355\321\001\005\032\004\t\000\355\321\003\t&\004\b\017\016(\t\r\f(\007\r\f*\006\013\n*\204\n\f \377\n\016&\007\007\007\007\377\f\020&\007\007\007\007\377\f\f&\b\b\b\b\377\n\022&\b\b\b\b\007\000\375\321\t\t\035\004\006\000\375\321\006\t!\004\377\016\020*\200\200\200\200\377\f\022*\200\200\200\200\007\000\355\321\001\005\036\004\b\000\355\321\003\t\"\004\006\000\355\321\001\005\032\004\t\000\355\321\003\t&\004\b\017\016(\t\r\f(\007\r\f*\006\013\n*\204\n\f \377\n\016&\007\007\007\007\377\f\020&\007\007\007\007\377\f\f&\b\b\b\b\377\n\022&\b\b\b\b\007\000\375\321\t\t\035\004\006\000\375\321\006\t!\004\377\016\020*\200\200\200\200\377\f\022*\200\200\200\200\007\000\355\321\001\005\036\004\b\000\355\321\003\t\"\004\006\000\355\321\001\005\032\004\t\000\355\321\003\t&\004\b\017\016(\t\r\f(\007\r\f*\006\013\n*\204\n\f \377\n\016&\007\007\007\007\377\f\020&\007\007\007\007\377\f\f&\b\b\b\b\377\n\022&\b\b\b\b\007\000\375\321\t\t\035\004\006\000\375\321\006\t!\004\377\016\020*\200\200\200\200\377\f\022*\200\200\200\200\007\000\355\321\001\005\036\004\b\000\355\321\003\t\"\004\006\000\355\321\001\005\032\004\t\000\355\321\003\t&\004\b\017\016(\t\r\f(\007\r\f*\006\013\n*\204\n\f \377\n\016&\007\007\007\007\377\f\020&\007\007\007\007\377\f\f&\b\b\b\b\377\n\022&\b\b\b\b\007\000\375\321\t\t\035\004\006\000\375\321\006\t!\004\377\016\020*\200\200\200\200\377\f\022*\200\200\200\200\007\000\355\321\001\005\036\004\b\000\355\321\003\t\"\004\006\000\355\321\001\005\032\004\t\000\355\321\003\t&\004\b\017\016(\t\r\f(\007\r\f*\006\013\n*\204\n\f \377\n\016&\007\007\007\007\377\f\020&\007\007\007\007\377\f\f&\b\b\b\b\377\n\022&\b\b\b\b\007\000\375\321\t\t\035\004\006\000\375\321\006\t!\004\377\016\020*\200\200\200\200\377\f\022*\200\200\200\200\007\000\355\321\001\005\036\004\b\000\355\321\003\t\"\004\006\000\355\321\001\005\032\004\t\000\355\321\003\t&\004\b\017\016(\t\r\f(\007\r\f*\006\013\n*\204\n\f \377\n\016&\007\007\007\007\377\f\020&\007\007\007\007\377\f\f&\b\b\b\b\377\n\022&\b\b\b\b\007\000\375\321\t\t\035\004\006\000\375\321\006\t!\004\377\016\020*\200\200\200\200\377\f\022*\200\200\200\200\007\000\355\321\001\005\036\004\b\000\355\321\003\t\"\004\006\000\355\321\001\005\032\004\t\000\355\321\003\t&\004\b\017\016(\t\r\f(\007\r\f*\006\013\n*\204\n\f \377\n\016&\007\007\007\007\377\f\020&\007\007\007\007\377\f\f&\b\b\b\b\377\n\022&\b\b\b\b\007\000\375\321\t\t\035\004\006\000\375\321\006\t!\004\377\016\020*\200\200\200\200\377\f\022*\200\200\200\200\007\000\355\321\001\005\036\004\b\000\355\321\003\t\"\004\006\000\355\321\001\005\032\004\t\000\355\321\003\t&\004\b\017\016(\t\r\f(\007\r\f*\006\013\n*\204\n\f \377\n\016&\007\007\007\007\377\f\020&\007\007\007\007\377\f\f&\b\b\b\b\377\n\022&\b\b\b\b\007\000\375\321\t\t\035\004\006\000\375\321\006\t!\004\377\016\020*\200\200\200\200\377\f\022*\200\200\200\200\007\000\355\321\001\005\036\004\b\000\355\321\003\t\"\004\006\000\355\321\001\005\032\004\t\000\355\321\003\t&\004\b\017\016(\t\r\f(\007\r\f*\006\013\n*\204\n\f \377\n\016&\007\007\007\007\377\f\020&\007\007\007\007\377\f\f&\b\b\b\b\377\n\022&\b\b\b\b\007\000\375\321\t\t\035\004\006\000\375\321\006\t!\004\377\016\020*\200\200\200\200\377\f\022*\200\200\200\200\007\000\355\321\001\005\036\004\b\000\355\321\003\t\"\004\006\000\355\321\001\005\032\004\t\000\355\321\003\t&\004\b\017\016(\t\r\f(\007\r\f*\006\013\n*\204\n\f \377\n\016&\007\007\007\007\377\f\020&\007\007\007\007\377\f\f&\b\b\b\b\377\n\022&\b\b\b\b\007\000\375\321\t\t\035\004\006\000\375\321\006\t!\004\377\016\020*\200\200\200\200\377\f\022*\200\200\200\200\007\000\355\321\001\005\036\004\b\000\355\321\003\t\"\004\006\000\355\321\001\005\032\004\t\000\355\321\003\t&\004\b\017\016(\t\r\f(\007\r\f*\006\013\n*\204\n\f \377\n\016&\007\007\007\007\377\f\020&\007\007\007\007\377\f\f&\b\b\b\b\377\n\022&\b\b\b\b\007\000\375\321\t\t\035\004\006\000\375\321\006\t!\004\377\016\020*\200\200\200\200\377\f\022*\200\200\200\200\007\000\355\321\001\005\036\004\b\000\355\321\003\t\"\004\006\000\355\321\001\005\032\004\t\000\355\321\003\t&\004\b\017\016(\t\r\f(\007\r\f*\006\013\n*\204\n\f \377\n\016&\007\007\007\007\377\f\020&\007\007\007\007\377\f\f&\b\b\b\b\377\n\022&\b\b\b\b\007\000\375\321\t\t\035\004\006\000\375\321\006\t!\004\377\016\020*\200\200\200\200\377\f\022*\200\200\200\200\007\000\355\321\001\005\036\004\b\000\355\321\003\t\"\004\006\000\355\321\001\005\032\004\t\000\355\321\003\t&\004\b\017\016(\t\r\f(\007\r\f*\006\013\n*\204\n\f \377\n\016&\007\007\007\007\377\f\020&\007\007\007\007\377\f\f&\b\b\b\b\377\n\022&\b\b\b\b\007\000\375\321\t\t\035\004\006\000\375\321\006\t!\004\377\016\020*\200\200\200\200\377\f\022*\200\200\200\200\007\000\355\321\001\005\036\004\b\000\355\321\003\t\"\004\006\000\355\321\001\005\032\004\t\000\355\321\003\t&\004\b\017\016(\t\r\f(\007\r\f*\006\013\n*\204\n\f \377\n\016&\007\007\007\007\377\f\020&\007\007\007\007\377\f\f&\b\b\b\b\377\n\022&\b\b\b\b\007\000\375\321\t\t\035\004\006\000\375\321\006\t!\004\377\016\020*\200\200\200\200\377\f\022*\200\200\200\200\007\000\355\321\001\005\036\004\b\000\355\321\003\t\"\004\006\000\355\321\001\005\032\004\t\000\355\321\003\t&\004\b\017\016(\t\r\f(\007\r\f*\006\013\n*\204\n\f \377\n\016&\007\007\007\007\377\f\020&\007\007\007\007\377\f\f&\b\b\b\b\377\n\022&\b\b\b\b\007\000\375\321\t\t\035\004\006\000\375\321\006\t!\004\377\016\020*\200\200\200\200\377\f\022*\200\200\200\200\007\000\355\321\001\005\036\004\b\000\355\321\003\t\"\004\006\000\355\321\001\005\032\004\t\000\355\321\003\t&\004\b\017\016(\t\r\f(\007\r\f*\006\013\n*\204\n\f \377\n\016&\007\007\007\007\377\f\020&\007\007\007\007\377\f\f&\b\b\b\b\377\n\022&\b\b\b\b\007\000\375\321\t\t\035\004\006\000\375\321\006\t!\004\377\016\020*\200\200\200\200\377\f\022*\200\200\200\200\007\000\355\321\001\005\036\004\b\000\355\321\003\t\"\004\006\000\355\321\001\005\032\004\t\000\355\321\003\t&\004\b\017\016(\t\r\f(\007\r\f*\006\013\n*\204\n\f \377\n\016&\007\007\007\007\377\f\020&\007\007\007\007\377\f\f&\b\b\b\b\377\n\022&\b\b\b\b\007\000\375\321\t\t\035\004\006\000\375\321\006\t!\004\377\016\020*\200\200\200\200\377\f\022*\200\200\200\200\007\000\355\321\001\005\036\004\b\000\355\321\003\t\"\004\006\000\355\321\001\005\032\004\t\000\355\321\003\t&\004\b\017\016(\t\r\f(\007\r\f*\006\013\n*\204\n\f \377\n\016&\007\007\007\007\377\f\020&\007\007\007\007\377\f\f&\b\b\b\b\377\n\022&\b\b\b\b\007\000\375\321\t\t\035\004\006\000\375\321\006\t!\004\377\016\020*\200\200\200\200\377\f\022*\200\200\200\200\007\000\355\321\001\005\036\004\b\000\355\321\003\t\"\004\006\000\355\321\001\005\032\004\t\000\355\321\003\t&\004\b\017\016(\t\r\f(\007\r\f*\006\013\n*\204\n\f \377\n\016&\007\007\007\007\377\f\020&\007\007\007\007\377\f\f&\b\b\b\b\377\n\022&\b\b\b\b\007\000\375\321\t\t\035\004\006\000\375\321\006\t!\004\377\016\020*\200\200\200\200\377\f\022*\200\200\200\200\007\000\355\321\001\005\036\004\b\000\355\321\003\t\"\004\006\000\355\321\001\005\032\004\t\000\355\321\003\t&\004\b\017\016(\t\r\f(\007\r\f*\006\013\n*\204\n\f \377\n\016&\007\007\007\007\377\f\020&\007\007\007\007\377\f\f&\b\b\b\b\377\n\022&\b\b\b\b\007\000\375\321\t\t\035\004\006\000\375\321\006\t!\004\377\016\020*\200\200\200\200\377\f\022*\200\200\200\200\007\000\355\321\001\005\036\004\b\000\355\321\003\t\"\004\006\000\355\321\001\005\032\004\t\000\355\321\003\t&\004\b\017\016(\t\r\f(\007\r\f*\006\013\n*\204\n\f \377\n\016&\007\007\007\007\377\f\020&\007\007\007\007\377\f\f&\b\b\b\b\377\n\022&\b\b\b\b\007\000\375\321\t\t\035\004\006\000\375\321\006\t!\004\377\016\020*\200\200\200\200\377\f\022*\200\200\200\200\007\000\355\321\001\005\036\004\b\000\355\321\003\t\"\004\006\000\355\321\001\005\032\004\t\000\355\321\003\t&\004\b\017\016(\t\r\f(\007\r\f*\006\013\n*\204\n\f \377\n\016&\007\007\007\007\377\f\020&\007\007\007\007\377\f\f&\b\b\b\b\377\n\022&\b\b\b\b\007\000\375\321\t\t\035\004\006\000\375\321\006\t!\004\377\016\020*\200\200\200\200\377\f\022*\200\200\200\200\007\000\355\321\001\005\036\004\b\000\355\321\003\t\"\004\006\000\355\321\001\005\032\004\t\000\355\321\003\t&\004\b\017\016(\t\r\f(\007\r\f*\006\013\n*\204\n\f \377\n\016&\007\007\007\007\377\f\020&\007\007\007\007\377\f\f&\b\b\b\b\377\n\022&\b\b\b\b\007\000\375\321\t\t\035\004\006\000\375\321\006\t!\004\377\016\020*\200\200\200\200\377\f\022*\200\200\200\200\007\000\355\321\001\005\036\004\b\000\355\321\003\t\"\004\006\000\355\321\001\005\032\004\t\000\355\321\003\t&\004\b\017\016(\t\r\f(\007\r\f*\006\013\n*\204\n\f \377\n\016&\007\007\007\007\377\f\020&\007\007\007\007\377\f\f&\b\b\b\b\377\n\022&\b\b\b\b\007\000\375\321\t\t\035\004\006\000\375\321\006\t!\004\377\016\020*\200\200\200\200\377\f\022*\200\200\200\200\007\000\355\321\001\005\036\004\b\000\355\321\003\t\"\004\006\000\355\321\001\005\032\004\t\000\355\321\003\t&\004\b\017\016(\t\r\f(\007\r\f*\006\013\n*\204\n\f \377\n\016&\007\007\007\007\377\f\020&\007\007\007\007\377\f\f&\b\b\b\b\377\n\022&\b\b\b\b\007\000\375\321\t\t\035\004\006\000\375\321\006\t!\004\377\016\020*\200\200\200\200\377\f\022*\200\200\200\200\007\000\355\321\001\005\036\004\b\000\355\321\003\t\"\004\006\000\355\321\001\005\032\004\t\000\355\321\003\t&\004\b\017\016(\t\r\f(\007\r\f*\006\013\n*\204\n\f \377\n\016&\007\007\007\007\377\f\020&\007\007\007\007\377\f\f&\b\b\b\b\377\n\022&\b\b\b\b\007\000\375\321\t\t\035\004\006\000\375\321\006\t!\004\377\016\020*\200\200\200\200\377\f\022*\200\200\200\200\007\000\355\321\001\005\036\004\b\000\355\321\003\t\"\004\006\000\355\321\001\005\032\004\t\000\355\321\003\t&\004\b\017\016(\t\r\f(\007\r\f*\006\013\n*\204\n\f \377\n\016&\007\007\007\007\377\f\020&\007\007\007\007\377\f\f&\b\b\b\b\377\n\022&\b\b\b\b\007\000\375\321\t\t\035\004\006\000\375\321\006\t!\004\377\016\020*\200\200\200\200\377\f\022*\200\200\200\200\007\000\355\321\001\005\036\004\b\000\355\321\003\t\"\004\006\000\355\321\001\005\032\004\t\000\355\321\003\t&\004\b\017\016(\t\r\f(\007\r\f*\006\013\n*\204\n\f \377\n\016&\007\007\007\007\377\f\020&\007\007\007\007\377\f\f&\b\b\b\b\377\n\022&\b\b\b\b\007\000\375\321\t\t\035\004\006\000\375\321\006\t!\004\377\016\020*\200\200\200\200\377\f\022*\200\200\200\200\007\000\355\321\001\005\036\004\b\000\355\321\003\t\"\004\006\000\355\321\001\005\032\004\t\000\355\321\003\t&\004\b\017\016(\t\r\f(\007\r\f*\006\013\n*\204\n\f \377\n\016&\007\007\007\007\377\f\020&\007\007\007\007\377\f\f&\b\b\b\b\377\n\022&\b\b\b\b\007\000\375\321\t\t\035\004\006\000\375\321\006\t!\004\377\016\020*\200\200\200\200\377\f\022*\200\200\200\200\007\000\355\321\001\005\036\004\b\000\355\321\003\t\"\004\006\000\355\321\001\005\032\004\t\000\355\321\003\t&\004\b\017\016(\t\r\f(\007\r\f*\006\013\n*\204\n\f \377\n\016&\007\007\007\007\377\f\020&\007\007\007\007\377\f\f&\b\b\b\b\377\n\022&\b\b\b\b\007\000\375\321\t\t\035\004\006\000\375\321\006\t!\004\377\016\020*\200\200\200\200\377\f\022*\200\200\200\200\007\000\355\321\001\005\036\004\b\000\355\321\003\t\"\004\006\000\355\321\001\005\032\004\t\000\355\321\003\t&\004\b\017\016(\t\r\f(\007\r\f*\006\013\n*\204\n\f \377\n\016&\007\007\007\007\377\f\020&\007\007\007\007\377\f\f&\b\b\b\b\377\n\022&\b\b\b\b\007\000\375\321\t\t\035\004\006\000\375\321\006\t!\004\377\016\020*\200\200\200\200\377\f\022*\200\200\200\200\007\000\355\321\001\005\036\004\b\000\355\321\003\t\"\004\006\000\355\321\001\005\032\004\t\000\355\321\003\t&\004\b\017\016(\t\r\f(\007\r\f*\006\013\n*\204\n\f \377\n\016&\007\007\007\007\377\f\020&\007\007\007\007\377\f\f&\b\b\b\b\377\n\022&\b\b\b\b\007\000\375\321\t\t\035\004\006\000\375\321\006\t!\004\377\016\020*\200\200\200\200\377\f\022*\200\200\200\200\007\000\355\321\001\005\036\004\b\000\355\321\003\t\"\004\006\000\355\321\001\005\032\004\t\000\355\321\003\t&\004\b\017\016(\t\r\f(\007\r\f*\006\013\n*\204\n\f \377\n\016&\007\007\007\007\377\f\020&\007\007\007\007\377\f\f&\b\b\b\b\377\n\022&\b\b\b\b\007\000\375\321\t\t\035\004\006\000\375\321\006\t!\004\377\016\020*\200\200\200\200\377\f\022*\200\200\200\200\007\000\355\321\001\005\036\004\b\000\355\321\003\t\"\004\006\000\355\321\001\005\032\004\t\000\355\321\003\t&\004\b\017\016(\t\r\f(\007\r\f*\006\013\n*\204\n\f \377\n\016&\007\007\007\007\377\f\020&\007\007\007\007\377\f\f&\b\b\b\b\377\n\022&\b\b\b\b\007\000\375\321\t\t\035\004\006\000\375\321\006\t!\004\377\016\020*\200\200\200\200\377\f\022*\200\200\200\200\007\000\355\321\001\005\036\004\b\000\355\321\003\t\"\004\006\000\355\321\001\005\032\004\t\000\355\321\003\t&\004\b\017\016(\t\r\f(\007\r\f*\006\013\n*\204\n\f \377\n\016&\007\007\007\007\377\f\020&\007\007\007\007\377\f\f&\b\b\b\b\377\n\022&\b\b\b\b\007\000\375\321\t\t\035\004\006\000\375\321\006\t!\004\377\016\020*\200\200\200\200\377\f\022*\200\200\200\200\007\000\355\321\001\005\036\004\b\000\355\321\003\t\"\004\006\000\355\321\001\005\032\004\t\000\355\321\003\t&\004\b\017\016(\t\r\f(\007\r\f*\006\013\n*\204\n\f \377\n\016&\007\007\007\007\377\f\020&\007\007\007\007\377\f\f&\b\b\b\b\377\n\022&\b\b\b\b\007\000\375\321\t\t\035\004\006\000\375\321\006\t!\004\377\016\020*\200\200\200\200\377\f\022*\200\200\200\200\007\000\355\321\001\005\036\004\b\000\355\321\003\t\"\004\006\000\355\321\001\005\032\004\t\000\355\321\003\t&\004\b\017\016(\t\r\f(\007\r\f*\006\013\n*\204\n\f \377\n\016&\007\007\007\007\377\f\020&\007\007\007\007\377\f\f&\b\b\b\b\377\n\022&\b\b\b\b\007\000\375\321\t\t\035\004\006\000\375\321\006\t!\004\377\016\020*\200\200\200\200\377\f\022*\200\200\200\200\007\000\355\321\001\005\036\004\b\000\355\321\003\t\"\004\006\000\355\321\001\005\032\004\t\000\355\321\003\t&\004\b\017\016(\t\r\f(\007\r\f*\006\013\n*\204\n\f \377\n\016&\007\007\007\007\377\f\020&\007\007\007\007\377\f\f&\b\b\b\b\377\n\022&\b\b\b\b\007\000\375\321\t\t\035\004\006\000\375\321\006\t!\004\377\016\020*\200\200\200\200\377\f\022*\200\200\200\200\007\000\355\321\001\005\036\004\b\000\355\321\003\t\"\004\006\000\355\321\001\005\032\004\t\000\355\321\003\t&\004\b\017\016(\t\r\f(\007\r\f*\006\013\n*\204\n\f \377\n\016&\007\007\007\007\377\f\020&\007\007\007\007\377\f\f&\b\b\b\b\377\n\022&\b\b\b\b\007\000\375\321\t\t\035\004\006\000\375\321\006\t!\004\377\016\020*\200\200\200\200\377\f\022*\200\200\200\200\007\000\355\321\001\005\036\004\b\000\355\321\003\t\"\004\006\000\355\321\001\005\032\004\t\000\355\321\003\t&\004\b\017\016(\t\r\f(\007\r\f*\006\013\n*\204\n\f \377\n\016&\007\007\007\007\377\f\020&\007\007\007\007\377\f\f&\b\b\b\b\377\n\022&\b\b\b\b\007\000\375\321\t\t\035\004\006\000\375\321\006\t!\004\377\016\020*\200\200\200\200\377\f\022*\200\200\200\200\007\000\355\321\001\005\036\004\b\000\355\321\003\t\"\004\006\000\355\321\001\005\032\004\t\000\355\321\003\t&\004\b\017\016(\t\r\f(\007\r\f*\006\013\n*\204\n\f \377\n\016&\007\007\007\007\377\f\020&\007\007\007\007\377\f\f&\b\b\b\b\377\n\022&\b\b\b\b\007\000\375\321\t\t\035\004\006\000\375\321\006\t!\004\377\016\020*\200\200\200\200\377\f\022*\200\200\200\200\007\000\355\321\001\005\036\004\b\000\355\321\003\t\"\004\006\000\355\321\001\005\032\004\t\000\355\321\003\t&\004\b\017\016(\t\r\f(\007\r\f*\006\013\n*\204\n\f \377\n\016&\007\007\007\007\377\f\020&\007\007\007\007\377\f\f&\b\b\b\b\377\n\022&\b\b\b\b\007\000\375\321\t\t\035\004\006\000\375\321\006\t!\004\377\016\020*\200\200\200\200\377\f\022*\200\200\200\200\007\000\355\321\001\005\036\004\b\000\355\321\003\t\"\004\006\000\355\321\001\005\032\004\t\000\355\321\003\t&\004\b\017\016(\t\r\f(\007\r\f*\006\013\n*\204\n\f \377\n\016&\007\007\007\007\377\f\020&\007\007\007\007\377\f\f&\b\b\b\b\377\n\022&\b\b\b\b\007\000\375\321\t\t\035\004\006\000\375\321\006\t!\004\377\016\020*\200\200\200\200\377\f\022*\200\200\200\200\007\000\355\321\001\005\036\004\b\000\355\321\003\t\"\004\006\000\355\321\001\005\032\004\t\000\355\321\003\t&\004\b\017\016(\t\r\f(\007\r\f*\006\013\n*\204\n\f \377\n\016&\007\007\007\007\377\f\020&\007\007\007\007\377\f\f&\b\b\b\b\377\n\022&\b\b\b\b\007\000\375\321\t\t\035\004\006\000\375\321\006\t!\004\377\016\020*\200\200\200\200\377\f\022*\200\200\200\200\007\000\355\321\001\005\036\004\b\000\355\321\003\t\"\004\006\000\355\321\001\005\032\004\t\000\355\321\003\t&\004\b\017\016(\t\r\f(\007\r\f*\006\013\n*\204\n\f \377\n\016&\007\007\007\007\377\f\020&\007\007\007\007\377\f\f&\b\b\b\b\377\n\022&\b\b\b\b\007\000\375\321\t\t\035\004\006\000\375\321\006\t!\004\377\016\020*\200\200\200\200\377\f\022*\200\200\200\200\007\000\355\321\001\005\036\004\b\000\355\321\003\t\"\004\006\000\355\321\001\005\032\004\t\000\355\321\003\t&\004\b\017\016(\t\r\f(\007\r\f*\006\013\n*\204\n\f \377\n\016&\007\007\007\007\377\f\020&\007\007\007\007\377\f\f&\b\b\b\b\377\n\022&\b\b\b\b\007\000\375\321\t\t\035\004\006\000\375\321\006\t!\004\377\016\020*\200\200\200\200\377\f\022*\200\200\200\200\007\000\355\321\001\005\036\004\b\000\355\321\003\t\"\004\006\000\355\321\001\005\032\004\t\000\355\321\003\t&\004\b\017\016(\t\r\f(\007\r\f*\006\013\n*\204\n\f \377\n\016&\007\007\007\007\377\f\020&\007\007\007\007\377\f\f&\b\b\b\b\377\n\022&\b\b\b\b\007\000\375\321\t\t\035\004\006\000\375\321\006\t!\004\377\016\020*\200\200\200\200\377\f\022*\200\200\200\200\007\000\355\321\001\005\036\004\b\000\355\321\003\t\"\004\006\000\355\321\001\005\032\004\t\000\355\321\003\t&\004\b\017\016(\t\r\f(\007\r\f*\006\013\n*\204\n\f \377\n\016&\007\007\007\007\377\f\020&\007\007\007\007\377\f\f&\b\b\b\b\377\n\022&\b\b\b\b\007\000\375\321\t\t\035\004\006\000\375\321\006\t!\004\377\016\020*\200\200\200\200\377\f\022*\200\200\200\200\007\000\355\321\001\005\036\004\b\000\355\321\003\t\"\004\006\000\355\321\001\005\032\004\t\000\355\321\003\t&\004\b\017\016(\t\r\f(\007\r\f*\006\013\n*\204\n\f \377\n\016&\007\007\007\007\377\f\020&\007\007\007\007\377\f\f&\b\b\b\b\377\n\022&\b\b\b\b\007\000\375\321\t\t\035\004\006\000\375\321\006\t!\004\377\016\020*\200\200\200\200\377\f\022*\200\200\200\200\007\000\355\321\001\005\036\004\b\000\355\321\003\t\"\004\006\000\355\321\001\005\032\004\t\000\355\321\003\t&\004\b\017\016(\t\r\f(\007\r\f*\006\013\n*\204\n\f \377\n\016&\007\007\007\007\377\f\020&\007\007\007\007\377\f\f&\b\b\b\b\377\n\022&\b\b\b\b\007\000\375\321\t\t\035\004\006\000\375\321\006\t!\004\377\016\020*\200\200\200\200\377\f\022*\200\200\200\200\007\000\355\321\001\005\036\004\b\000\355\321\003\t\"\004\006\000\355\321\001\005\032\004\t\000\355\321\003\t&\004\b\017\016(\t\r\f(\007\r\f*\006\013\n*\204\n\f \377\n\016&\007\007\007\007\377\f\020&\007\007\007\007\377\f\f&\b\b\b\b\377\n\022&\b\b\b\b\007\000\375\321\t\t\035\004\006\000\375\321\006\t!\004\377\016\020*\200\200\200\200\377\f\022*\200\200\200\200\007\000\355\321\001\005\036\004\b\000\355\321\003\t\"\004\006\000\355\321\001\005\032\004\t\000\355\321\003\t&\004\b\017\016(\t\r\f(\007\r\f*\006\013\n*\204\n\f \377\n\016&\007\007\007\007\377\f\020&\007\007\007\007\377\f\f&\b\b\b\b\377\n\022&\b\b\b\b\007\000\375\321\t\t\035\004\006\000\375\321\006\t!\004\377\016\020*\200\200\200\200\377\f\022*\200\200\200\200\007\000\355\321\001\005\036\004\b\000\355\321\003\t\"\004\006\000\355\321\001\005\032\004\t\000\355\321\003\t&\004\b\017\016(\t\r\f(\007\r\f*\006\013\n*\204\n\f \377\n\016&\007\007\007\007\377\f\020&\007\007\007\007\377\f\f&\b\b\b\b\377\n\022&\b\b\b\b\007\000\375\321\t\t\035\004\006\000\375\321\006\t!\004\377\016\020*\200\200\200\200\377\f\022*\200\200\200\200\007\000\355\321\001\005\036\004\b\000\355\321\003\t\"\004\006\000\355\321\001\005\032\004\t\000\355\321\003\t&\004\b\017\016(\t\r\f(\007\r\f*\006\013\n*\204\n\f \377\n\016&\007\007\007\007\377\f\020&\007\007\007\007\377\f\f&\b\b\b\b\377\n\022&\b\b\b\b\007\000\375\321\t\t\035\004\006\000\375\321\006\t!\004\377\016\020*\200\200\200\200\377\f\022*\200\200\200\200\007\000\355\321\001\005\036\004\b\000\355\321\003\t\"\004\006\000\355\321\001\005\032\004\t\000\355\321\003\t&\004\b\017\016(\t\r\f(\007\r\f*\006\013\n*\204\n\f \377\n\016&\007\007\007\007\377\f\020&\007\007\007\007\377\f\f&\b\b\b\b\377\n\022&\b\b\b\b\007\000\375\321\t\t\035\004\006\000\375\321\006\t!\004\377\016\020*\200\200\200\200\377\f\022*\200\200\200\200\007\000\355\321\001\005\036\004\b\000\355\321\003\t\"\004\006\000\355\321\001\005\032\004\t\000\355\321\003\t&\004\b\017\016(\t\r\f(\007\r\f*\006\013\n*\204\n\f \377\n\016&\007\007\007\007\377\f\020&\007\007\007\007\377\f\f&\b\b\b\b\377\n\022&\b\b\b\b\007\000\375\321\t\t\035\004\006\000\375\321\006\t!\004\377\016\020*\200\200\200\200\377\f\022*\200\200\200\200\007\000\355\321\001\005\036\004\b\000\355\321\003\t\"\004\006\000\355\321\001\005\032\004\t\000\355\321\003\t&\004\b\017\016(\t\r\f(\007\r\f*\006\013\n*\204\n\f \377\n\016&\007\007\007\007\377\f\020&\007\007\007\007\377\f\f&\b\b\b\b\377\n\022&\b\b\b\b\007\000\375\321\t\t\035\004\006\000\375\321\006\t!\004\377\016\020*\200\200\200\200\377\f\022*\200\200\200\200\007\000\355\321\001\005\036\004\b\000\355\321\003\t\"\004\006\000\355\321\001\005\032\004\t\000\355\321\003\t&\004\b\017\016(\t\r\f(\007\r\f*\006\013\n*\204\n\f \377\n\016&\007\007\007\007\377\f\020&\007\007\007\007\377\f\f&\b\b\b\b\377\n\022&\b\b\b\b\007\000\375\321\t\t\035\004\006\000\375\321\006\t!\004\377\016\020*\200\200\200\200\377\f\022*\200\200\200\200\007\000\355\321\001\005\036\004\b\000\355\321\003\t\"\004\006\000\355\321\001\005\032\004\t\000\355\321\003\t&\004\b\017\016(\t\r\f(\007\r\f*\006\013\n*\204\n\f \377\n\016&\007\007\007\007\377\f\020&\007\007\007\007\377\f\f&\b\b\b\b\377\n\022&\b\b\b\b\007\000\375\321\t\t\035\004\006\000\375\321\006\t!\004\377\016\020*\200\200\200\200\377\f\022*\200\200\200\200\007\000\355\321\001\005\036\004\b\000\355\321\003\t\"\004\006\000\355\321\001\005\032\004\t\000\355\321\003\t&\004\b\017\016(\t\r\f(\007\r\f*\006\013\n*\204\n\f \377\n\016&\007\007\007\007\377\f\020&\007\007\007\007\377\f\f&\b\b\b\b\377\n\022&\b\b\b\b\007\000\375\321\t\t\035\004\006\000\375\321\006\t!\004\377\016\020*\200\200\200\200\377\f\022*\200\200\200\200\007\000\355\321\001\005\036\004\b\000\355\321\003\t\"\004\006\000\355\321\001\005\032\004\t\000\355\321\003\t&\004\b\017\016(\t\r\f(\007\r\f*\006\013\n*\204\n\f \377\n\016&\007\007\007\007\377\f\020&\007\007\007\007\377\f\f&\b\b\b\b\377\n\022&\b\b\b\b\007\000\375\321\t\t\035\004\006\000\375\321\006\t!\004\377\016\020*\200\200\200\200\377\f\022*\200\200\200\200\007\000\355\321\001\005\036\004\b\000\355\321\003\t\"\004\006\000\355\321\001\005\032\004\t\000\355\321\003\t&\004\b\017\016(\t\r\f(\007\r\f*\006\013\n*\204\n\f \377\n\016&\007\007\007\007\377\f\020&\007\007\007\007\377\f\f&\b\b\b\b\377\n\022&\b\b\b\b\007\000\375\321\t\t\035\004\006\000\375\321\006\t!\004\377\016\020*\200\200\200\200\377\f\022*\200\200\200\200\007\000\355\321\001\005\036\004\b\000\355\321\003\t\"\004\006\000\355\321\001\005\032\004\t\000\355\321\003\t&\004\b\017\016(\t\r\f(\007\r\f*\006\013\n*\204\n\f \377\n\016&\007\007\007\007\377\f\020&\007\007\007\007\377\f\f&\b\b\b\b\377\n\022&\b\b\b\b\007\000\375\321\t\t\035\004\006\000\375\321\006\t!\004\377\016\020*\200\200\200\200\377\f\022*\200\200\200\200\007\000\355\321\001\005\036\004\b\000\355\321\003\t\"\004\006\000\355\321\001\005\032\004\t\000\355\321\003\t&\004\b\017\016(\t\r\f(\007\r\f*\006\013\n*\204\n\f \377\n\016&\007\007\007\007\377\f\020&\007\007\007\007\377\f\f&\b\b\b\b\377\n\022&\b\b\b\b\007\000\375\321\t\t\035\004\006\000\375\321\006\t!\004\377\016\020*\200\200\200\200\377\f\022*\200\200\200\200\007\000\355\321\001\005\036\004\b\000\355\321\003\t\"\004\006\000\355\321\001\005\032\004\t\000\355\321\003\t&\004\b\017\016(\t\r\f(\007\r\f*\006\013\n*\204\n\f \377\n\016&\007\007\007\007\377\f\020&\007\007\007\007\377\f\f&\b\b\b\b\377\n\022&\b\b\b\b\007\000\375\321\t\t\035\004\006\000\375\321\006\t!\004\377\016\020*\200\200\200\200\377\f\022*\200\200\200\200\007\000\355\321\001\005\036\004\b\000\355\321\003\t\"\004\006\000\355\321\001\005\032\004\t\000\355\321\003\t&\004\b\017\016(\t\r\f(\007\r\f*\006\013\n*\204\n\f \377\n\016&\007\007\007\007\377\f\020&\007\007\007\007\377\f\f&\b\b\b\b\377\n\022&\b\b\b\b\007\000\375\321\t\t\035\004\006\000\375\321\006\t!\004\377\016\020*\200\200\200\200\377\f\022*\200\200\200\200\007\000\355\321\001\005\036\004\b\000\355\321\003\t\"\004\006\000\355\321\001\005\032\004\t\000\355\321\003\t&\004\b\017\016(\t\r\f(\007\r\f*\006\013\n*\204\n\f \377\n\016&\007\007\007\007\377\f\020&\007\007\007\007\377\f\f&\b\b\b\b\377\n\022&\b\b\b\b\007\000\375\321\t\t\035\004\006\000\375\321\006\t!\004\377\016\020*\200\200\200\200\377\f\022*\200\200\200\200\007\000\355\321\001\005\036\004\b\000\355\321\003\t\"\004\006\000\355\321\001\005\032\004\t\000\355\321\003\t&\004\b\017\016(\t\r\f(\007\r\f*\006\013\n*\204\n\f \377\n\016&\007\007\007\007\377\f\020&\007\007\007\007\377\f\f&\b\b\b\b\377\n\022&\b\b\b\b\007\000\375\321\t\t\035\004\006\000\375\321\006\t!\004\377\016\020*\200\200\200\200\377\f\022*\200\200\200\200\007\000\355\321\001\005\036\004\b\000\355\321\003\t\"\004\006\000\355\321\001\005\032\004\t\000\355\321\003\t&\004\b\017\016(\t\r\f(\007\r\f*\006\013\n*\204\n\f \377\n\016&\007\007\007\007\377\f\020&\007\007\007\007\377\f\f&\b\b\b\b\377\n\022&\b\b\b\b\007\000\375\321\t\t\035\004\006\000\375\321\006\t!\004\377\016\020*\200\200\200\200\377\f\022*\200\200\200\200\007\000\355\321\001\005\036\004\b\000\355\321\003\t\"\004\006\000\355\321\001\005\032\004\t\000\355\321\003\t&\004\b\017\016(\t\r\f(\007\r\f*\006\013\n*\204\n\f \377\n\016&\007\007\007\007\377\f\020&\007\007\007\007\377\f\f&\b\b\b\b\377\n\022&\b\b\b\b\007\000\375\321\t\t\035\004\006\000\375\321\006\t!\004\377\016\020*\200\200\200\200\377\f\022*\200\200\200\200\007\000\355\321\001\005\036\004\b\000\355\321\003\t\"\004\006\000\355\321\001\005\032\004\t\000\355\321\003\t&\004\b\017\016(\t\r\f(\007\r\f*\006\013\n*\204\n\f \377\n\016&\007\007\007\007\377\f\020&\007\007\007\007\377\f\f&\b\b\b\b\377\n\022&\b\b\b\b\007\000\375\321\t\t\035\004\006\000\375\321\006\t!\004\377\016\020*\200\200\200\200\377\f\022*\200\200\200\200\007\000\355\321\001\005\036\004\b\000\355\321\003\t\"\004\006\000\355\321\001\005\032\004\t\000\355\321\003\t&\004\b\017\016(\t\r\f(\007\r\f*\006\013\n*\204\n\f \377\n\016&\007\007\007\007\377\f\020&\007\007\007\007\377\f\f&\b\b\b\b\377\n\022&\b\b\b\b\007\000\375\321\t\t\035\004\006\000\375\321\006\t!\004\377\016\020*\200\200\200\200\377\f\022*\200\200\200\200\007\000\355\321\001\005\036\004\b\000\355\321\003\t\"\004\006\000\355\321\001\005\032\004\t\000\355\321\003\t&\004\b\017\016(\t\r\f(\007\r\f*\006\013\n*\204\n\f \377\n\016&\007\007\007\007\377\n\n&\b\b\b\b\377\f\020&\007\007\007\007\377\f\f&\b\b\b\b\005\000\375\321\005\t\035\004\377\n\016*\200\200\200\200\006\000\375\321\006\t!\004\377\f\020*\200\200\200\200\005\000\355\321\001\005\026\004\007\000\355\321\003\t\036\004\002\000\355\321\001\005\032\004\003\000\355\321\003\t\"\004\003\005\004(\201\000\006$\237\006\b\"\003\000\217\322\202\006\002\000\001\002\000~\000\006\0062\007\013\002(\000\t\b8\000\200t\334\003\001\177\000\000\000\201\277\000\000\200\277\000\000\200\277\000\000\200\277\000\000\200\277\002\000\002\300\024\000\000\000\177\300\214\277\000\377\000\206\377\377\000\000\006\000\006\222\006\000\000h\377\000\200\276\000\000\001\000\000\000\210}j \200\276\235\000\210\277\002\000\000\322\000!\001\004\204\004\006 \377\004\b&\007\007\007\007\204\004\000$\377\000\200\276\200\200\200\200\377\006\024&\007\007\007\007\202\000\006\300\000\000\000\000\005\000\001\322\000\001\020\004\b\000\001\322\002\001(\004\377\n\016*\200\200\200\200\377\020\022*\200\200\200\200\377\002\026~\004\006\b\f\377\002\030~\000\001\002\003\000\000\355\321\013\031\026\004\377\002\032~\374\372\370\364\377\002\034~\000\377\376\375\001\000\355\321\r\035\036\004\006\000\355\321\013\031\"\004\017\000\355\321\r\035&\004\201\004$ \205\004& \001\001\000(\017\r\002(\006\000\355\321\013\031\022\004\017\000\355\321\013\031*\004\020\000\355\321\r\035\022\004\377$$&\004\004\004\004\377&&&\004\004\004\004\021\000\355\321\r\035*\004\377$$(\000\001\002\003\377&&(\000\001\002\003\020\000\355\321\020\rJ\004\017\000\355\321\021\037N\004\377\004\004&\b\b\b\b\377\006\006&\b\b\b\b\020\001\232}\000\000\315\320\017\003\002\000\006\000\355\321\013\031\026\004\007\000\355\321\r\035\036\004\b\000\355\321\013\031\"\004\t\000\355\321\r\035&\004\002\000\375\321\002\t\021\004\004\000\375\321\003\t)\004\377\004\006*\200\200\200\200\377\b\n*\200\200\200\200j\000\204\207\002\000\355\321\013\031\n\004\003\000\355\321\r\035\016\004\004\000\355\321\013\031\022\004\005\000\355\321\r\035\026\004\004 \200\276\017\000\210\277~\001\204\276\n\000\214\322\004\000\001\000\n\000\215\322\005\024\002\000\200\024\224}~j\206\206\006\001\376\276\006\000\210\277\004\r\204\276\200\002\024~\004\002\026~\177\300\214\277\000\200\b\335\n\013\002\000~\000\376\207\007\r\f(\t\021\016(\006\001\232}\000\000\315\320\007\003\002\000j\000\204\207\004 \200\276\017\000\210\277~\001\204\276\006\000\214\322\004\000\001\000\006\000\215\322\005\f\002\000\200\f\224}~j\206\206\006\001\376\276\006\000\210\277\004\r\204\276\200\002\f~\004\002\016~\177\300\214\277\004\200\b\335\006\007\002\000~\000\376\207\003\005\004(\005\t\006(\002\001\232}\000\000\315\320\003\003\002\000j\000\200\207~\000\376\206\017\000\210\277~\001\200\276\000\000\214\322\000\000\001\000\000\000\215\322\001\000\002\000\200\000\224}~j\204\206\004\001\376\276\006\000\210\277\000\r\200\276\200\002\000~\000\002\002~\177\300\214\277\b\200\b\335\000\001\002\000\000\000\201\277\006\000\000\000\000\000\000\000\350\031\000\000\000\000\000\000\013\000\000\000\000\000\000\000\030\000\000\000\000\000\000\000\005\000\000\000\000\000\000\000\324\033\000\000\000\000\000\000\n\000\000\000\000\000\000\000\320\000\000\000\000\000\000\000\365\376\377o\000\000\000\000\b\033\000\000\000\000\000\000\004\000\000\000\000\000\000\000l\033\000\000\000\000\000\000\000\000\000\000\000\000\000\000\000\000\000\000\000\000\000\000\000AMD clang version 20.0.0git (https://github.com/RadeonOpenCompute/llvm-project roc-7.1.1 25444 27682a16360e33e37c4f3cc6adf9a620733f8fe1)\000Linker: AMD LLD 20.0.0 (/longer_pathname_so_that_rpms_can_support_packaging_the_debug_info_for_all_os_profiles/src/llvm-project/llvm 27682a16360e33e37c4f3cc6adf9a620733f8fe1)\000\000\000\000\000\000\000\000\000\000\000\000\000\000\000\000\000\000\000\000\000\000\000\000\000\000\000\000\000\000\000\000\001\000\000\000\000\000\361\377\n\000\000\000\000\000\000\000\000\000\000\000\000\000\000\000\035\000\000\000\000\000\361\377\000\000\000\000\000\000\000\000\000\000\000\000\000\000\000\0009\000\000\000\000\000\361\377\007\000\000\000\000\000\000\000\000\000\000\000\000\000\000\000Z\000\000\000\000\000\361\377\000\000\000\000\000\000\000\000\000\000\000\000\000\000\000\000~\000\000\000\000\000\361\377\001\000\000\000\000\000\000\000\000\000\000\000\000\000\000\000\232\000\000\000\000\000\361\377\000\000\000\000\000\000\000\000\000\000\000\000\000\000\000\000\277\000\000\000\000\000\361\377\000\000\000\000\000\000\000\000\000\000\000\000\000\000\000\000\346\000\000\000\000\000\361\377\000\000\000\000\000\000\000\000\000\000\000\000\000\000\000\000\007\001\000\000\000\000\361\377\000\000\000\000\000\000\000\000\000\000\000\000\000\000\000\000,\001\000\000\000\000\361\377\f\000\000\000\000\000\000\000\000\000\000\000\000\000\000\000F\001\000\000\000\000\361\377\000\000\000\000\000\000\000\000\000\000\000\000\000\000\000\000`\001\000\000\000\000\361\377\007\000\000\000\000\000\000\000\000\000\000\000\000\000\000\000\177\001\000\000\000\000\361\377\000\000\000\000\000\000\000\000\000\000\000\000\000\000\000\000\241\001\000\000\000\000\361\377\001\000\000\000\000\000\000\000\000\000\000\000\000\000\000\000\273\001\000\000\000\000\361\377\000\000\000\000\000\000\000\000\000\000\000\000\000\000\000\000\336\001\000\000\000\000\361\377\000\000\000\000\000\000\000\000\000\000\000\000\000\000\000\000\003\002\000\000\000\000\361\377\000\000\000\000\000\000\000\000\000\000\000\000\000\000\000\000\"\002\000\000\000\000\361\377\000\000\000\000\000\000\000\000\000\000\000\000\000\000\000\000E\002\000\000\000\000\361\377\n\000\000\000\000\000\000\000\000\000\000\000\000\000\000\000_\002\000\000\000\000\361\377\000\000\000\000\000\000\000\000\000\000\000\000\000\000\000\000y\002\000\000\000\000\361\377\007\000\000\000\000\000\000\000\000\000\000\000\000\000\000\000\230\002\000\000\000\000\361\377\000\000\000\000\000\000\000\000\000\000\000\000\000\000\000\000\272\002\000\000\000\000\361\377\001\000\000\000\000\000\000\000\000\000\000\000\000\000\000\000\324\002\000\000\000\000\361\377\000\000\000\000\000\000\000\000\000\000\000\000\000\000\000\000\367\002\000\000\000\000\361\377\000\000\000\000\000\000\000\000\000\000\000\000\000\000\000\000\034\003\000\000\000\000\361\377\000\000\000\000\000\000\000\000\000\000\000\000\000\000\000\000;\003\000\000\000\000\361\377\000\000\000\000\000\000\000\000\000\000\000\000\000\000\000\000^\003\000\000\000\000\361\377\n\000\000\000\000\000\000\000\000\000\000\000\000\000\000\000x\003\000\000\000\000\361\377\000\000\000\000\000\000\000\000\000\000\000\000\000\000\000\000\222\003\000\000\000\000\361\377\007\000\000\000\000\000\000\000\000\000\000\000\000\000\000\000\261\003\000\000\000\000\361\377\000\000\000\000\000\000\000\000\000\000\000\000\000\000\000\000\323\003\000\000\000\000\361\377\001\000\000\000\000\000\000\000\000\000\000\000\000\000\000\000\355\003\000\000\000\000\361\377\000\000\000\000\000\000\000\000\000\000\000\000\000\000\000\000\020\004\000\000\000\000\361\377\000\000\000\000\000\000\000\000\000\000\000\000\000\000\000\0005\004\000\000\000\000\361\377\000\000\000\000\000\000\000\000\000\000\000\000\000\000\000\000T\004\000\000\000\000\361\377\000\000\000\000\000\000\000\000\000\000\000\000\000\000\000\000w\004\000\000\000\000\361\377\024\000\000\000\000\000\000\000\000\000\000\000\000\000\000\000\214\004\000\000\000\000\361\377\000\000\000\000\000\000\000\000\000\000\000\000\000\000\000\000\241\004\000\000\000\000\361\377\b\000\000\000\000\000\000\000\000\000\000\000\000\000\000\000\273\004\000\000\000\000\361\377\000\000\000\000\000\000\000\000\000\000\000\000\000\000\000\000\330\004\000\000\000\000\361\377\001\000\000\000\000\000\000\000\000\000\000\000\000\000\000\000\355\004\000\000\000\000\361\377\000\000\000\000\000\000\000\000\000\000\000\000\000\000\000\000\013\005\000\000\000\000\361\377\000\000\000\000\000\000\000\000\000\000\000\000\000\000\000\000+\005\000\000\000\000\361\377\000\000\000\000\000\000\000\000\000\000\000\000\000\000\000\000E\005\000\000\000\000\361\377\000\000\000\000\000\000\000\000\000\000\000\000\000\000\000\000c\005\000\000\000\000\361\377\000\000\000\000\000\000\000\000\000\000\000\000\000\000\000\000w\005\000\000\000\000\361\377\000\000\000\000\000\000\000\000\000\000\000\000\000\000\000\000\213\005\000\000\000\000\361\377\000\000\000\000\000\000\000\000\000\000\000\000\000\000\000\000n\006\000\000\000\002\b\000\250\360\000\000\000\000\000\000\000\000\000\000\000\000\000\000\237\005\000\000\022\003\007\000\000.\000\000\000\000\000\000P)\000\000\000\000\000\000\262\005\000\000\021\003\006\000\300\034\000\000\000\000\000\000@\000\000\000\000\000\000\000\310\005\000\000\022\003\007\000\000X\000\000\000\000\000\000\360-\000\000\000\000\000\000\331\005\000\000\021\003\006\000\000\035\000\000\000\000\000\000@\000\000\000\000\000\000\000\355\005\000\000\022\003\007\000\000\206\000\000\000\000\000\000P)\000\000\000\000\000\000\376\005\000\000\021\003\006\000@\035\000\000\000\000\000\000@\000\000\000\000\000\000\000\022\006\000\000\022\003\007\000\000\260\000\000\000\000\000\000\360-\000\000\000\000\000\000#\006\000\000\021\003\006\000\200\035\000\000\000\000\000\000@\000\000\000\000\000\000\0007\006\000\000\022\003\007\000\000\336\000\000\000\000\000\000\250\002\000\000\000\000\000\000C\006\000\000\021\003\006\000\300\035\000\000\000\000\000\000@\000\000\000\000\000\000\000R\006\000\000\021\000\n\000\030\001\001\000\000\000\000\000\001\000\000\000\000\000\000\000\000.note\000.dynsym\000.gnu.hash\000.hash\000.dynstr\000.rodata\000.text\000.dynamic\000.relro_padding\000.bss\000.AMDGPU.csdata\000.AMDGPU.gpr_maximums\000.comment\000.symtab\000.shstrtab\000.strtab\000\000_Z9bench_refPjPKji.num_vgpr\000_Z9bench_refPjPKji.num_agpr\000_Z9bench_refPjPKji.numbered_sgpr\000_Z9bench_refPjPKji.private_seg_size\000_Z9bench_refPjPKji.uses_vcc\000_Z9bench_refPjPKji.uses_flat_scratch\000_Z9bench_refPjPKji.has_dyn_sized_stack\000_Z9bench_refPjPKji.has_recursion\000_Z9bench_refPjPKji.has_indirect_call\000_Z7bench_hPjPKji.num_vgpr\000_Z7bench_hPjPKji.num_agpr\000_Z7bench_hPjPKji.numbered_sgpr\000_Z7bench_hPjPKji.private_seg_size\000_Z7bench_hPjPKji.uses_vcc\000_Z7bench_hPjPKji.uses_flat_scratch\000_Z7bench_hPjPKji.has_dyn_sized_stack\000_Z7bench_hPjPKji.has_recursion\000_Z7bench_hPjPKji.has_indirect_call\000_Z7bench_iPjPKji.num_vgpr\000_Z7bench_iPjPKji.num_agpr\000_Z7bench_iPjPKji.numbered_sgpr\000_Z7bench_iPjPKji.private_seg_size\000_Z7bench_iPjPKji.uses_vcc\000_Z7bench_iPjPKji.uses_flat_scratch\000_Z7bench_iPjPKji.has_dyn_sized_stack\000_Z7bench_iPjPKji.has_recursion\000_Z7bench_iPjPKji.has_indirect_call\000_Z7bench_lPjPKji.num_vgpr\000_Z7bench_lPjPKji.num_agpr\000_Z7bench_lPjPKji.numbered_sgpr\000_Z7bench_lPjPKji.private_seg_size\000_Z7bench_lPjPKji.uses_vcc\000_Z7bench_lPjPKji.uses_flat_scratch\000_Z7bench_lPjPKji.has_dyn_sized_stack\000_Z7bench_lPjPKji.has_recursion\000_Z7bench_lPjPKji.has_indirect_call\000_Z6verifyPi.num_vgpr\000_Z6verifyPi.num_agpr\000_Z6verifyPi.numbered_sgpr\000_Z6verifyPi.private_seg_size\000_Z6verifyPi.uses_vcc\000_Z6verifyPi.uses_flat_scratch\000_Z6verifyPi.has_dyn_sized_stack\000_Z6verifyPi.has_recursion\000_Z6verifyPi.has_indirect_call\000amdgpu.max_num_vgpr\000amdgpu.max_num_agpr\000amdgpu.max_num_sgpr\000_Z9bench_refPjPKji\000_Z9bench_refPjPKji.kd\000_Z7bench_hPjPKji\000_Z7bench_hPjPKji.kd\000_Z7bench_iPjPKji\000_Z7bench_iPjPKji.kd\000_Z7bench_lPjPKji\000_Z7bench_lPjPKji.kd\000_Z6verifyPi\000_Z6verifyPi.kd\000__hip_cuid_87282b2f4982cd8e\000_DYNAMIC\000\000\000\000\000\000\000\000\000\000\000\000\000\000\000\000\000\000\000\000\000\000\000\000\000\000\000\000\000\000\000\000\000\000\000\000\000\000\000\000\000\000\000\000\000\000\000\000\000\000\000\000\000\000\000\000\000\000\000\000\000\000\000\000\000\001\000\000\000\007\000\000\000\002\000\000\000\000\000\000\0008\002\000\000\000\000\000\0008\002\000\000\000\000\000\000\260\027\000\000\000\000\000\000\000\000\000\000\000\000\000\000\004\000\000\000\000\000\000\000\000\000\000\000\000\000\000\000\007\000\000\000\013\000\000\000\002\000\000\000\000\000\000\000\350\031\000\000\000\000\000\000\350\031\000\000\000\000\000\000 \001\000\000\000\000\000\000\005\000\000\000\001\000\000\000\b\000\000\000\000\000\000\000\030\000\000\000\000\000\000\000\017\000\000\000\366\377\377o\002\000\000\000\000\000\000\000\b\033\000\000\000\000\000\000\b\033\000\000\000\000\000\000d\000\000\000\000\000\000\000\002\000\000\000\000\000\000\000\b\000\000\000\000\000\000\000\000\000\000\000\000\000\000\000\031\000\000\000\005\000\000\000\002\000\000\000\000\000\000\000l\033\000\000\000\000\000\000l\033\000\000\000\000\000\000h\000\000\000\000\000\000\000\002\000\000\000\000\000\000\000\004\000\000\000\000\000\000\000\004\000\000\000\000\000\000\000\037\000\000\000\003\000\000\000\002\000\000\000\000\000\000\000\324\033\000\000\000\000\000\000\324\033\000\000\000\000\000\000\320\000\000\000\000\000\000\000\000\000\000\000\000\000\000\000\001\000\000\000\000\000\000\000\000\000\000\000\000\000\000\000'\000\000\000\001\000\000\000\002\000\000\000\000\000\000\000\300\034\000\000\000\000\000\000\300\034\000\000\000\000\000\000@\001\000\000\000\000\000\000\000\000\000\000\000\000\000\000@\000\000\000\000\000\000\000\000\000\000\000\000\000\000\000/\000\000\000\001\000\000\000\006\000\000\000\000\000\000\000\000.\000\000\000\000\000\000\000\036\000\000\000\000\000\000\250\262\000\000\000\000\000\000\000\000\000\000\000\000\000\000\000\001\000\000\000\000\000\000\000\000\000\000\000\000\000\0005\000\000\000\006\000\000\000\003\000\000\000\000\000\000\000\250\360\000\000\000\000\000\000\250\320\000\000\000\000\000\000p\000\000\000\000\000\000\000\005\000\000\000\000\000\000\000\b\000\000\000\000\000\000\000\020\000\000\000\000\000\000\000>\000\000\000\b\000\000\000\003\000\000\000\000\000\000\000\030\361\000\000\000\000\000\000\030\321\000\000\000\000\000\000\350\016\000\000\000\000\000\000\000\000\000\000\000\000\000\000\001\000\000\000\000\000\000\000\000\000\000\000\000\000\000\000M\000\000\000\b\000\000\000\003\000\000\000\000\000\000\000\030\001\001\000\000\000\000\000\030\321\000\000\000\000\000\000\001\000\000\000\000\000\000\000\000\000\000\000\000\000\000\000\001\000\000\000\000\000\000\000\000\000\000\000\000\000\000\000R\000\000\000\001\000\000\000\000\000\000\000\000\000\000\000\000\000\000\000\000\000\000\000\030\321\000\000\000\000\000\000\000\000\000\000\000\000\000\000\000\000\000\000\000\000\000\000\001\000\000\000\000\000\000\000\000\000\000\000\000\000\000\000a\000\000\000\001\000\000\000\000\000\000\000\000\000\000\000\000\000\000\000\000\000\000\000\030\321\000\000\000\000\000\000\000\000\000\000\000\000\000\000\000\000\000\000\000\000\000\000\001\000\000\000\000\000\000\000\000\000\000\000\000\000\000\000v\000\000\000\001\000\000\0000\000\000\000\000\000\000\000\000\000\000\000\000\000\000\000\030\321\000\000\000\000\000\0009\001\000\000\000\000\000\000\000\000\000\000\000\000\000\000\001\000\000\000\000\000\000\000\001\000\000\000\000\000\000\000\177\000\000\000\002\000\000\000\000\000\000\000\000\000\000\000\000\000\000\000\000\000\000\000X\322\000\000\000\000\000\000\270\005\000\000\000\000\000\000\020\000\000\0002\000\000\000\b\000\000\000\000\000\000\000\030\000\000\000\000\000\000\000\207\000\000\000\003\000\000\000\000\000\000\000\000\000\000\000\000\000\000\000\000\000\000\000\020\330\000\000\000\000\000\000\231\000\000\000\000\000\000\000\000\000\000\000\000\000\000\000\001\000\000\000\000\000\000\000\000\000\000\000\000\000\000\000\221\000\000\000\003\000\000\000\000\000\000\000\000\000\000\000\000\000\000\000\000\000\000\000\251\330\000\000\000\000\000\000w\006\000\000\000\000\000\000\000\000\000\000\000\000\000\000\001\000\000\000\000\000\000\000\000\000\000\000\000\000\000"
	.size	.L__unnamed_6, 62304

	.type	__hip_fatbin_wrapper,@object    # @__hip_fatbin_wrapper
	.section	.hipFatBinSegment,"a",@progbits
	.p2align	3, 0x0
__hip_fatbin_wrapper:
	.long	1212764230                      # 0x48495046
	.long	1                               # 0x1
	.quad	.L__unnamed_6
	.quad	0
	.size	__hip_fatbin_wrapper, 24

	.type	__hip_gpubin_handle_87282b2f4982cd8e,@object # @__hip_gpubin_handle_87282b2f4982cd8e
	.local	__hip_gpubin_handle_87282b2f4982cd8e
	.comm	__hip_gpubin_handle_87282b2f4982cd8e,8,8
	.section	.init_array,"aw",@init_array
	.p2align	3, 0x0
	.quad	__hip_module_ctor
	.type	__hip_cuid_87282b2f4982cd8e,@object # @__hip_cuid_87282b2f4982cd8e
	.bss
	.globl	__hip_cuid_87282b2f4982cd8e
__hip_cuid_87282b2f4982cd8e:
	.byte	0                               # 0x0
	.size	__hip_cuid_87282b2f4982cd8e, 1

	.type	.Lstr,@object                   # @str
	.section	.rodata.str1.1,"aMS",@progbits,1
.Lstr:
	.asciz	"MXFP4 SDWA/Fused Operation Tests"
	.size	.Lstr, 33

	.type	.Lstr.1,@object                 # @str.1
.Lstr.1:
	.asciz	"================================\n"
	.size	.Lstr.1, 34

	.type	.Lstr.2,@object                 # @str.2
.Lstr.2:
	.asciz	"\n\342\234\223 All correct!\n"
	.size	.Lstr.2, 19

	.type	.Lstr.3,@object                 # @str.3
.Lstr.3:
	.asciz	"\n\342\232\240\357\270\217  Some have errors!\n"
	.size	.Lstr.3, 28

	.type	.Lstr.4,@object                 # @str.4
.Lstr.4:
	.asciz	"Benchmark Results:"
	.size	.Lstr.4, 19

	.ident	"AMD clang version 20.0.0git (https://github.com/RadeonOpenCompute/llvm-project roc-7.1.1 25444 27682a16360e33e37c4f3cc6adf9a620733f8fe1)"
	.section	".note.GNU-stack","",@progbits
	.addrsig
	.addrsig_sym _Z24__device_stub__bench_refPjPKji
	.addrsig_sym _Z22__device_stub__bench_hPjPKji
	.addrsig_sym _Z22__device_stub__bench_iPjPKji
	.addrsig_sym _Z22__device_stub__bench_lPjPKji
	.addrsig_sym _Z21__device_stub__verifyPi
	.addrsig_sym __hip_module_ctor
	.addrsig_sym __hip_module_dtor
	.addrsig_sym _Z9bench_refPjPKji
	.addrsig_sym _Z7bench_hPjPKji
	.addrsig_sym _Z7bench_iPjPKji
	.addrsig_sym _Z7bench_lPjPKji
	.addrsig_sym _Z6verifyPi
	.addrsig_sym .L__unnamed_6
	.addrsig_sym __hip_fatbin_wrapper
	.addrsig_sym __hip_cuid_87282b2f4982cd8e
