	.file	"test_bfi_mxfp4.hip"
	.text
	.globl	_Z23__device_stub__test_bfiPKjP15HIP_vector_typeIiLj2EEi # -- Begin function _Z23__device_stub__test_bfiPKjP15HIP_vector_typeIiLj2EEi
	.p2align	4
	.type	_Z23__device_stub__test_bfiPKjP15HIP_vector_typeIiLj2EEi,@function
_Z23__device_stub__test_bfiPKjP15HIP_vector_typeIiLj2EEi: # @_Z23__device_stub__test_bfiPKjP15HIP_vector_typeIiLj2EEi
	.cfi_startproc
# %bb.0:
	subq	$104, %rsp
	.cfi_def_cfa_offset 112
	movq	%rdi, 72(%rsp)
	movq	%rsi, 64(%rsp)
	movl	%edx, 12(%rsp)
	leaq	72(%rsp), %rax
	movq	%rax, 80(%rsp)
	leaq	64(%rsp), %rax
	movq	%rax, 88(%rsp)
	leaq	12(%rsp), %rax
	movq	%rax, 96(%rsp)
	leaq	48(%rsp), %rdi
	leaq	32(%rsp), %rsi
	leaq	24(%rsp), %rdx
	leaq	16(%rsp), %rcx
	callq	__hipPopCallConfiguration
	movq	48(%rsp), %rsi
	movl	56(%rsp), %edx
	movq	32(%rsp), %rcx
	movl	40(%rsp), %r8d
	leaq	80(%rsp), %r9
	movl	$_Z8test_bfiPKjP15HIP_vector_typeIiLj2EEi, %edi
	pushq	16(%rsp)
	.cfi_adjust_cfa_offset 8
	pushq	32(%rsp)
	.cfi_adjust_cfa_offset 8
	callq	hipLaunchKernel
	addq	$120, %rsp
	.cfi_adjust_cfa_offset -120
	retq
.Lfunc_end0:
	.size	_Z23__device_stub__test_bfiPKjP15HIP_vector_typeIiLj2EEi, .Lfunc_end0-_Z23__device_stub__test_bfiPKjP15HIP_vector_typeIiLj2EEi
	.cfi_endproc
                                        # -- End function
	.globl	_Z28__device_stub__test_baselinePKjP15HIP_vector_typeIiLj2EEi # -- Begin function _Z28__device_stub__test_baselinePKjP15HIP_vector_typeIiLj2EEi
	.p2align	4
	.type	_Z28__device_stub__test_baselinePKjP15HIP_vector_typeIiLj2EEi,@function
_Z28__device_stub__test_baselinePKjP15HIP_vector_typeIiLj2EEi: # @_Z28__device_stub__test_baselinePKjP15HIP_vector_typeIiLj2EEi
	.cfi_startproc
# %bb.0:
	subq	$104, %rsp
	.cfi_def_cfa_offset 112
	movq	%rdi, 72(%rsp)
	movq	%rsi, 64(%rsp)
	movl	%edx, 12(%rsp)
	leaq	72(%rsp), %rax
	movq	%rax, 80(%rsp)
	leaq	64(%rsp), %rax
	movq	%rax, 88(%rsp)
	leaq	12(%rsp), %rax
	movq	%rax, 96(%rsp)
	leaq	48(%rsp), %rdi
	leaq	32(%rsp), %rsi
	leaq	24(%rsp), %rdx
	leaq	16(%rsp), %rcx
	callq	__hipPopCallConfiguration
	movq	48(%rsp), %rsi
	movl	56(%rsp), %edx
	movq	32(%rsp), %rcx
	movl	40(%rsp), %r8d
	leaq	80(%rsp), %r9
	movl	$_Z13test_baselinePKjP15HIP_vector_typeIiLj2EEi, %edi
	pushq	16(%rsp)
	.cfi_adjust_cfa_offset 8
	pushq	32(%rsp)
	.cfi_adjust_cfa_offset 8
	callq	hipLaunchKernel
	addq	$120, %rsp
	.cfi_adjust_cfa_offset -120
	retq
.Lfunc_end1:
	.size	_Z28__device_stub__test_baselinePKjP15HIP_vector_typeIiLj2EEi, .Lfunc_end1-_Z28__device_stub__test_baselinePKjP15HIP_vector_typeIiLj2EEi
	.cfi_endproc
                                        # -- End function
	.globl	main                            # -- Begin function main
	.p2align	4
	.type	main,@function
main:                                   # @main
	.cfi_startproc
# %bb.0:
	xorl	%eax, %eax
	retq
.Lfunc_end2:
	.size	main, .Lfunc_end2-main
	.cfi_endproc
                                        # -- End function
	.p2align	4                               # -- Begin function __hip_module_ctor
	.type	__hip_module_ctor,@function
__hip_module_ctor:                      # @__hip_module_ctor
	.cfi_startproc
# %bb.0:
	pushq	%rbx
	.cfi_def_cfa_offset 16
	subq	$32, %rsp
	.cfi_def_cfa_offset 48
	.cfi_offset %rbx, -16
	movq	__hip_gpubin_handle_349aa7714f3c5371(%rip), %rbx
	testq	%rbx, %rbx
	jne	.LBB3_2
# %bb.1:
	movl	$__hip_fatbin_wrapper, %edi
	callq	__hipRegisterFatBinary
	movq	%rax, %rbx
	movq	%rax, __hip_gpubin_handle_349aa7714f3c5371(%rip)
.LBB3_2:
	xorps	%xmm0, %xmm0
	movups	%xmm0, 16(%rsp)
	movups	%xmm0, (%rsp)
	movl	$_Z8test_bfiPKjP15HIP_vector_typeIiLj2EEi, %esi
	movl	$.L__unnamed_1, %edx
	movl	$.L__unnamed_1, %ecx
	movq	%rbx, %rdi
	movl	$-1, %r8d
	xorl	%r9d, %r9d
	callq	__hipRegisterFunction
	xorps	%xmm0, %xmm0
	movups	%xmm0, 16(%rsp)
	movups	%xmm0, (%rsp)
	movl	$_Z13test_baselinePKjP15HIP_vector_typeIiLj2EEi, %esi
	movl	$.L__unnamed_2, %edx
	movl	$.L__unnamed_2, %ecx
	movq	%rbx, %rdi
	movl	$-1, %r8d
	xorl	%r9d, %r9d
	callq	__hipRegisterFunction
	movl	$__hip_module_dtor, %edi
	addq	$32, %rsp
	.cfi_def_cfa_offset 16
	popq	%rbx
	.cfi_def_cfa_offset 8
	jmp	atexit                          # TAILCALL
.Lfunc_end3:
	.size	__hip_module_ctor, .Lfunc_end3-__hip_module_ctor
	.cfi_endproc
                                        # -- End function
	.p2align	4                               # -- Begin function __hip_module_dtor
	.type	__hip_module_dtor,@function
__hip_module_dtor:                      # @__hip_module_dtor
	.cfi_startproc
# %bb.0:
	movq	__hip_gpubin_handle_349aa7714f3c5371(%rip), %rdi
	testq	%rdi, %rdi
	je	.LBB4_2
# %bb.1:
	pushq	%rax
	.cfi_def_cfa_offset 16
	callq	__hipUnregisterFatBinary
	movq	$0, __hip_gpubin_handle_349aa7714f3c5371(%rip)
	addq	$8, %rsp
	.cfi_def_cfa_offset 8
.LBB4_2:
	retq
.Lfunc_end4:
	.size	__hip_module_dtor, .Lfunc_end4-__hip_module_dtor
	.cfi_endproc
                                        # -- End function
	.type	_Z8test_bfiPKjP15HIP_vector_typeIiLj2EEi,@object # @_Z8test_bfiPKjP15HIP_vector_typeIiLj2EEi
	.section	.rodata,"a",@progbits
	.globl	_Z8test_bfiPKjP15HIP_vector_typeIiLj2EEi
	.p2align	3, 0x0
_Z8test_bfiPKjP15HIP_vector_typeIiLj2EEi:
	.quad	_Z23__device_stub__test_bfiPKjP15HIP_vector_typeIiLj2EEi
	.size	_Z8test_bfiPKjP15HIP_vector_typeIiLj2EEi, 8

	.type	_Z13test_baselinePKjP15HIP_vector_typeIiLj2EEi,@object # @_Z13test_baselinePKjP15HIP_vector_typeIiLj2EEi
	.globl	_Z13test_baselinePKjP15HIP_vector_typeIiLj2EEi
	.p2align	3, 0x0
_Z13test_baselinePKjP15HIP_vector_typeIiLj2EEi:
	.quad	_Z28__device_stub__test_baselinePKjP15HIP_vector_typeIiLj2EEi
	.size	_Z13test_baselinePKjP15HIP_vector_typeIiLj2EEi, 8

	.type	.L__unnamed_1,@object           # @0
	.section	.rodata.str1.1,"aMS",@progbits,1
.L__unnamed_1:
	.asciz	"_Z8test_bfiPKjP15HIP_vector_typeIiLj2EEi"
	.size	.L__unnamed_1, 41

	.type	.L__unnamed_2,@object           # @1
.L__unnamed_2:
	.asciz	"_Z13test_baselinePKjP15HIP_vector_typeIiLj2EEi"
	.size	.L__unnamed_2, 47

	.type	.L__unnamed_3,@object           # @2
	.section	.hip_fatbin,"a",@progbits
	.p2align	12, 0x0
.L__unnamed_3:
	.asciz	"__CLANG_OFFLOAD_BUNDLE__\003\000\000\000\000\000\000\000\000\020\000\000\000\000\000\000\000\000\000\000\000\000\000\000\036\000\000\000\000\000\000\000host-x86_64-unknown-linux-gnu-\000\020\000\000\000\000\000\000`!\000\000\000\000\000\000 \000\000\000\000\000\000\000hipv4-amdgcn-amd-amdhsa--gfx1030\000@\000\000\000\000\000\000p \000\000\000\000\000\000\037\000\000\000\000\000\000\000hipv4-amdgcn-amd-amdhsa--gfx906\000\000\000\000\000\000\000\000\000\000\000\000\000\000\000\000\000\000\000\000\000\000\000\000\000\000\000\000\000\000\000\000\000\000\000\000\000\000\000\000\000\000\000\000\000\000\000\000\000\000\000\000\000\000\000\000\000\000\000\000\000\000\000\000\000\000\000\000\000\000\000\000\000\000\000\000\000\000\000\000\000\000\000\000\000\000\000\000\000\000\000\000\000\000\000\000\000\000\000\000\000\000\000\000\000\000\000\000\000\000\000\000\000\000\000\000\000\000\000\000\000\000\000\000\000\000\000\000\000\000\000\000\000\000\000\000\000\000\000\000\000\000\000\000\000\000\000\000\000\000\000\000\000\000\000\000\000\000\000\000\000\000\000\000\000\000\000\000\000\000\000\000\000\000\000\000\000\000\000\000\000\000\000\000\000\000\000\000\000\000\000\000\000\000\000\000\000\000\000\000\000\000\000\000\000\000\000\000\000\000\000\000\000\000\000\000\000\000\000\000\000\000\000\000\000\000\000\000\000\000\000\000\000\000\000\000\000\000\000\000\000\000\000\000\000\000\000\000\000\000\000\000\000\000\000\000\000\000\000\000\000\000\000\000\000\000\000\000\000\000\000\000\000\000\000\000\000\000\000\000\000\000\000\000\000\000\000\000\000\000\000\000\000\000\000\000\000\000\000\000\000\000\000\000\000\000\000\000\000\000\000\000\000\000\000\000\000\000\000\000\000\000\000\000\000\000\000\000\000\000\000\000\000\000\000\000\000\000\000\000\000\000\000\000\000\000\000\000\000\000\000\000\000\000\000\000\000\000\000\000\000\000\000\000\000\000\000\000\000\000\000\000\000\000\000\000\000\000\000\000\000\000\000\000\000\000\000\000\000\000\000\000\000\000\000\000\000\000\000\000\000\000\000\000\000\000\000\000\000\000\000\000\000\000\000\000\000\000\000\000\000\000\000\000\000\000\000\000\000\000\000\000\000\000\000\000\000\000\000\000\000\000\000\000\000\000\000\000\000\000\000\000\000\000\000\000\000\000\000\000\000\000\000\000\000\000\000\000\000\000\000\000\000\000\000\000\000\000\000\000\000\000\000\000\000\000\000\000\000\000\000\000\000\000\000\000\000\000\000\000\000\000\000\000\000\000\000\000\000\000\000\000\000\000\000\000\000\000\000\000\000\000\000\000\000\000\000\000\000\000\000\000\000\000\000\000\000\000\000\000\000\000\000\000\000\000\000\000\000\000\000\000\000\000\000\000\000\000\000\000\000\000\000\000\000\000\000\000\000\000\000\000\000\000\000\000\000\000\000\000\000\000\000\000\000\000\000\000\000\000\000\000\000\000\000\000\000\000\000\000\000\000\000\000\000\000\000\000\000\000\000\000\000\000\000\000\000\000\000\000\000\000\000\000\000\000\000\000\000\000\000\000\000\000\000\000\000\000\000\000\000\000\000\000\000\000\000\000\000\000\000\000\000\000\000\000\000\000\000\000\000\000\000\000\000\000\000\000\000\000\000\000\000\000\000\000\000\000\000\000\000\000\000\000\000\000\000\000\000\000\000\000\000\000\000\000\000\000\000\000\000\000\000\000\000\000\000\000\000\000\000\000\000\000\000\000\000\000\000\000\000\000\000\000\000\000\000\000\000\000\000\000\000\000\000\000\000\000\000\000\000\000\000\000\000\000\000\000\000\000\000\000\000\000\000\000\000\000\000\000\000\000\000\000\000\000\000\000\000\000\000\000\000\000\000\000\000\000\000\000\000\000\000\000\000\000\000\000\000\000\000\000\000\000\000\000\000\000\000\000\000\000\000\000\000\000\000\000\000\000\000\000\000\000\000\000\000\000\000\000\000\000\000\000\000\000\000\000\000\000\000\000\000\000\000\000\000\000\000\000\000\000\000\000\000\000\000\000\000\000\000\000\000\000\000\000\000\000\000\000\000\000\000\000\000\000\000\000\000\000\000\000\000\000\000\000\000\000\000\000\000\000\000\000\000\000\000\000\000\000\000\000\000\000\000\000\000\000\000\000\000\000\000\000\000\000\000\000\000\000\000\000\000\000\000\000\000\000\000\000\000\000\000\000\000\000\000\000\000\000\000\000\000\000\000\000\000\000\000\000\000\000\000\000\000\000\000\000\000\000\000\000\000\000\000\000\000\000\000\000\000\000\000\000\000\000\000\000\000\000\000\000\000\000\000\000\000\000\000\000\000\000\000\000\000\000\000\000\000\000\000\000\000\000\000\000\000\000\000\000\000\000\000\000\000\000\000\000\000\000\000\000\000\000\000\000\000\000\000\000\000\000\000\000\000\000\000\000\000\000\000\000\000\000\000\000\000\000\000\000\000\000\000\000\000\000\000\000\000\000\000\000\000\000\000\000\000\000\000\000\000\000\000\000\000\000\000\000\000\000\000\000\000\000\000\000\000\000\000\000\000\000\000\000\000\000\000\000\000\000\000\000\000\000\000\000\000\000\000\000\000\000\000\000\000\000\000\000\000\000\000\000\000\000\000\000\000\000\000\000\000\000\000\000\000\000\000\000\000\000\000\000\000\000\000\000\000\000\000\000\000\000\000\000\000\000\000\000\000\000\000\000\000\000\000\000\000\000\000\000\000\000\000\000\000\000\000\000\000\000\000\000\000\000\000\000\000\000\000\000\000\000\000\000\000\000\000\000\000\000\000\000\000\000\000\000\000\000\000\000\000\000\000\000\000\000\000\000\000\000\000\000\000\000\000\000\000\000\000\000\000\000\000\000\000\000\000\000\000\000\000\000\000\000\000\000\000\000\000\000\000\000\000\000\000\000\000\000\000\000\000\000\000\000\000\000\000\000\000\000\000\000\000\000\000\000\000\000\000\000\000\000\000\000\000\000\000\000\000\000\000\000\000\000\000\000\000\000\000\000\000\000\000\000\000\000\000\000\000\000\000\000\000\000\000\000\000\000\000\000\000\000\000\000\000\000\000\000\000\000\000\000\000\000\000\000\000\000\000\000\000\000\000\000\000\000\000\000\000\000\000\000\000\000\000\000\000\000\000\000\000\000\000\000\000\000\000\000\000\000\000\000\000\000\000\000\000\000\000\000\000\000\000\000\000\000\000\000\000\000\000\000\000\000\000\000\000\000\000\000\000\000\000\000\000\000\000\000\000\000\000\000\000\000\000\000\000\000\000\000\000\000\000\000\000\000\000\000\000\000\000\000\000\000\000\000\000\000\000\000\000\000\000\000\000\000\000\000\000\000\000\000\000\000\000\000\000\000\000\000\000\000\000\000\000\000\000\000\000\000\000\000\000\000\000\000\000\000\000\000\000\000\000\000\000\000\000\000\000\000\000\000\000\000\000\000\000\000\000\000\000\000\000\000\000\000\000\000\000\000\000\000\000\000\000\000\000\000\000\000\000\000\000\000\000\000\000\000\000\000\000\000\000\000\000\000\000\000\000\000\000\000\000\000\000\000\000\000\000\000\000\000\000\000\000\000\000\000\000\000\000\000\000\000\000\000\000\000\000\000\000\000\000\000\000\000\000\000\000\000\000\000\000\000\000\000\000\000\000\000\000\000\000\000\000\000\000\000\000\000\000\000\000\000\000\000\000\000\000\000\000\000\000\000\000\000\000\000\000\000\000\000\000\000\000\000\000\000\000\000\000\000\000\000\000\000\000\000\000\000\000\000\000\000\000\000\000\000\000\000\000\000\000\000\000\000\000\000\000\000\000\000\000\000\000\000\000\000\000\000\000\000\000\000\000\000\000\000\000\000\000\000\000\000\000\000\000\000\000\000\000\000\000\000\000\000\000\000\000\000\000\000\000\000\000\000\000\000\000\000\000\000\000\000\000\000\000\000\000\000\000\000\000\000\000\000\000\000\000\000\000\000\000\000\000\000\000\000\000\000\000\000\000\000\000\000\000\000\000\000\000\000\000\000\000\000\000\000\000\000\000\000\000\000\000\000\000\000\000\000\000\000\000\000\000\000\000\000\000\000\000\000\000\000\000\000\000\000\000\000\000\000\000\000\000\000\000\000\000\000\000\000\000\000\000\000\000\000\000\000\000\000\000\000\000\000\000\000\000\000\000\000\000\000\000\000\000\000\000\000\000\000\000\000\000\000\000\000\000\000\000\000\000\000\000\000\000\000\000\000\000\000\000\000\000\000\000\000\000\000\000\000\000\000\000\000\000\000\000\000\000\000\000\000\000\000\000\000\000\000\000\000\000\000\000\000\000\000\000\000\000\000\000\000\000\000\000\000\000\000\000\000\000\000\000\000\000\000\000\000\000\000\000\000\000\000\000\000\000\000\000\000\000\000\000\000\000\000\000\000\000\000\000\000\000\000\000\000\000\000\000\000\000\000\000\000\000\000\000\000\000\000\000\000\000\000\000\000\000\000\000\000\000\000\000\000\000\000\000\000\000\000\000\000\000\000\000\000\000\000\000\000\000\000\000\000\000\000\000\000\000\000\000\000\000\000\000\000\000\000\000\000\000\000\000\000\000\000\000\000\000\000\000\000\000\000\000\000\000\000\000\000\000\000\000\000\000\000\000\000\000\000\000\000\000\000\000\000\000\000\000\000\000\000\000\000\000\000\000\000\000\000\000\000\000\000\000\000\000\000\000\000\000\000\000\000\000\000\000\000\000\000\000\000\000\000\000\000\000\000\000\000\000\000\000\000\000\000\000\000\000\000\000\000\000\000\000\000\000\000\000\000\000\000\000\000\000\000\000\000\000\000\000\000\000\000\000\000\000\000\000\000\000\000\000\000\000\000\000\000\000\000\000\000\000\000\000\000\000\000\000\000\000\000\000\000\000\000\000\000\000\000\000\000\000\000\000\000\000\000\000\000\000\000\000\000\000\000\000\000\000\000\000\000\000\000\000\000\000\000\000\000\000\000\000\000\000\000\000\000\000\000\000\000\000\000\000\000\000\000\000\000\000\000\000\000\000\000\000\000\000\000\000\000\000\000\000\000\000\000\000\000\000\000\000\000\000\000\000\000\000\000\000\000\000\000\000\000\000\000\000\000\000\000\000\000\000\000\000\000\000\000\000\000\000\000\000\000\000\000\000\000\000\000\000\000\000\000\000\000\000\000\000\000\000\000\000\000\000\000\000\000\000\000\000\000\000\000\000\000\000\000\000\000\000\000\000\000\000\000\000\000\000\000\000\000\000\000\000\000\000\000\000\000\000\000\000\000\000\000\000\000\000\000\000\000\000\000\000\000\000\000\000\000\000\000\000\000\000\000\000\000\000\000\000\000\000\000\000\000\000\000\000\000\000\000\000\000\000\000\000\000\000\000\000\000\000\000\000\000\000\000\000\000\000\000\000\000\000\000\000\000\000\000\000\000\000\000\000\000\000\000\000\000\000\000\000\000\000\000\000\000\000\000\000\000\000\000\000\000\000\000\000\000\000\000\000\000\000\000\000\000\000\000\000\000\000\000\000\000\000\000\000\000\000\000\000\000\000\000\000\000\000\000\000\000\000\000\000\000\000\000\000\000\000\000\000\000\000\000\000\000\000\000\000\000\000\000\000\000\000\000\000\000\000\000\000\000\000\000\000\000\000\000\000\000\000\000\000\000\000\000\000\000\000\000\000\000\000\000\000\000\000\000\000\000\000\000\000\000\000\000\000\000\000\000\000\000\000\000\000\000\000\000\000\000\000\000\000\000\000\000\000\000\000\000\000\000\000\000\000\000\000\000\000\000\000\000\000\000\000\000\000\000\000\000\000\000\000\000\000\000\000\000\000\000\000\000\000\000\000\000\000\000\000\000\000\000\000\000\000\000\000\000\000\000\000\000\000\000\000\000\000\000\000\000\000\000\000\000\000\000\000\000\000\000\000\000\000\000\000\000\000\000\000\000\000\000\000\000\000\000\000\000\000\000\000\000\000\000\000\000\000\000\000\000\000\000\000\000\000\000\000\000\000\000\000\000\000\000\000\000\000\000\000\000\000\000\000\000\000\000\000\000\000\000\000\000\000\000\000\000\000\000\000\000\000\000\000\000\000\000\000\000\000\000\000\000\000\000\000\000\000\000\000\000\000\000\000\000\000\000\000\000\000\000\000\000\000\000\000\000\000\000\000\000\000\000\000\000\000\000\000\000\000\000\000\000\000\000\000\000\000\000\000\000\000\000\000\000\000\000\000\000\000\000\000\000\000\000\000\000\000\000\000\000\000\000\000\000\000\000\000\000\000\000\000\000\000\000\000\000\000\000\000\000\000\000\000\000\000\000\000\000\000\000\000\000\000\000\000\000\000\000\000\000\000\000\000\000\000\000\000\000\000\000\000\000\000\000\000\000\000\000\000\000\000\000\000\000\000\000\000\000\000\000\000\000\000\000\000\000\000\000\000\000\000\000\000\000\000\000\000\000\000\000\000\000\000\000\000\000\000\000\000\000\000\000\000\000\000\000\000\000\000\000\000\000\000\000\000\000\000\000\000\000\000\000\000\000\000\000\000\000\000\000\000\000\000\000\000\000\000\000\000\000\000\000\000\000\000\000\000\000\000\000\000\000\000\000\000\000\000\000\000\000\000\000\000\000\000\000\000\000\000\000\000\000\000\000\000\000\000\000\000\000\000\000\000\000\000\000\000\000\000\000\000\000\000\000\000\000\000\000\000\000\000\000\000\000\000\000\000\000\000\000\000\000\000\000\000\000\000\000\000\000\000\000\000\000\000\000\000\000\000\000\000\000\000\000\000\000\000\000\000\000\000\000\000\000\000\000\000\000\000\000\000\000\000\000\000\000\000\000\000\000\000\000\000\000\000\000\000\000\000\000\000\000\000\000\000\000\000\000\000\000\000\000\000\000\000\000\000\000\000\000\000\000\000\000\000\000\000\000\000\000\000\000\000\000\000\000\000\000\000\000\000\000\000\000\000\000\000\000\000\000\000\000\000\000\000\000\000\000\000\000\000\000\000\000\000\000\000\000\000\000\000\000\000\000\000\000\000\000\000\000\000\000\000\000\000\000\000\000\000\000\000\000\000\000\000\000\000\000\000\000\000\000\000\000\000\000\000\000\000\000\000\000\000\000\000\000\000\000\000\000\000\000\000\000\000\000\000\000\000\000\000\000\000\000\000\000\000\000\000\000\000\000\000\000\000\000\000\000\000\000\000\000\000\000\000\000\000\000\000\000\000\000\000\000\000\000\000\000\000\000\000\000\000\000\000\000\000\000\000\000\000\000\000\000\000\000\000\000\000\000\000\000\000\000\000\000\000\000\000\000\000\000\000\000\000\000\000\000\000\000\000\000\000\000\000\000\000\000\000\000\000\000\000\000\000\000\000\000\000\000\000\000\000\000\000\000\000\000\000\000\000\000\000\000\000\000\000\000\000\000\000\000\000\000\000\000\000\000\000\000\000\000\000\000\000\000\000\000\000\000\000\000\000\000\000\000\000\000\000\000\000\000\000\000\000\000\000\000\000\000\000\000\000\000\000\000\000\000\000\000\000\000\000\000\000\000\000\000\000\000\000\000\000\000\000\000\000\000\000\000\000\000\000\000\000\000\000\000\000\000\000\000\000\000\000\000\000\000\000\000\000\000\000\000\000\000\000\000\000\000\000\000\000\000\000\000\000\000\000\000\000\000\000\000\000\000\000\000\000\000\000\000\000\000\000\000\000\000\000\000\000\000\000\000\000\000\000\000\000\000\000\000\000\000\000\000\000\000\000\000\000\000\000\000\000\000\000\000\000\000\000\000\000\000\000\000\000\000\000\000\000\000\000\000\000\000\000\000\000\000\000\000\000\000\000\000\000\000\000\000\000\000\000\000\000\000\000\000\000\000\000\000\000\000\000\000\000\000\000\000\000\000\000\000\000\000\000\000\000\000\000\000\000\000\000\000\000\000\000\000\000\000\000\000\000\000\000\000\000\000\000\000\000\000\000\000\000\000\000\000\000\000\000\000\000\000\000\000\000\000\000\000\000\000\000\000\000\000\000\000\000\000\000\000\000\000\000\000\000\000\000\000\000\000\000\000\000\000\000\000\000\000\000\000\000\000\000\000\000\000\000\000\000\000\000\000\000\000\000\000\000\000\000\000\000\000\000\000\000\000\000\000\000\000\000\000\000\000\000\000\000\000\000\000\000\000\000\000\000\000\000\000\000\000\000\000\000\000\000\000\000\000\000\000\000\000\000\000\000\000\000\000\000\000\000\000\000\000\000\000\000\000\000\000\000\000\000\000\000\000\000\000\000\000\000\000\000\000\000\000\000\000\000\000\000\000\000\000\000\000\000\000\000\000\000\000\000\000\000\000\000\000\000\000\000\000\000\000\000\000\000\000\000\000\000\000\000\000\000\000\000\000\000\000\000\000\000\000\000\000\000\000\000\000\000\000\000\000\000\000\000\000\000\000\000\000\000\000\000\000\000\000\000\000\000\000\000\000\000\000\000\000\000\000\000\000\000\000\000\000\000\000\000\000\000\000\000\000\000\000\000\000\000\000\000\000\000\000\000\000\000\000\000\000\000\000\000\000\000\000\000\000\000\000\000\000\000\000\000\000\000\000\000\000\000\000\000\000\000\000\000\000\000\000\000\000\000\000\000\000\000\000\000\000\000\000\000\000\000\000\000\000\000\000\000\000\000\000\000\000\000\000\000\000\000\000\000\000\000\000\000\000\000\000\000\000\000\000\000\000\000\000\000\000\000\000\000\000\000\000\000\000\000\000\000\000\000\000\000\000\000\000\000\000\000\000\000\000\000\000\000\000\000\000\000\000\000\000\000\000\000\000\000\000\000\000\000\000\000\000\000\000\000\177ELF\002\001\001@\004\000\000\000\000\000\000\000\003\000\340\000\001\000\000\000\000\000\000\000\000\000\000\000@\000\000\000\000\000\000\000 \035\000\000\000\000\000\0006\000\000\000@\0008\000\t\000@\000\021\000\017\000\006\000\000\000\004\000\000\000@\000\000\000\000\000\000\000@\000\000\000\000\000\000\000@\000\000\000\000\000\000\000\370\001\000\000\000\000\000\000\370\001\000\000\000\000\000\000\b\000\000\000\000\000\000\000\001\000\000\000\004\000\000\000\000\000\000\000\000\000\000\000\000\000\000\000\000\000\000\000\000\000\000\000\000\000\000\000\300\016\000\000\000\000\000\000\300\016\000\000\000\000\000\000\000\020\000\000\000\000\000\000\001\000\000\000\005\000\000\000\000\017\000\000\000\000\000\000\000\037\000\000\000\000\000\000\000\037\000\000\000\000\000\000\000\004\000\000\000\000\000\000\000\004\000\000\000\000\000\000\000\020\000\000\000\000\000\000\001\000\000\000\006\000\000\000\000\023\000\000\000\000\000\000\0003\000\000\000\000\000\000\0003\000\000\000\000\000\000p\000\000\000\000\000\000\000\000\r\000\000\000\000\000\000\000\020\000\000\000\000\000\000\001\000\000\000\006\000\000\000p\023\000\000\000\000\000\000pC\000\000\000\000\000\000pC\000\000\000\000\000\000\000\000\000\000\000\000\000\000\001\000\000\000\000\000\000\000\000\020\000\000\000\000\000\000\002\000\000\000\006\000\000\000\000\023\000\000\000\000\000\000\0003\000\000\000\000\000\000\0003\000\000\000\000\000\000p\000\000\000\000\000\000\000p\000\000\000\000\000\000\000\b\000\000\000\000\000\000\000R\345td\004\000\000\000\000\023\000\000\000\000\000\000\0003\000\000\000\000\000\000\0003\000\000\000\000\000\000p\000\000\000\000\000\000\000\000\r\000\000\000\000\000\000\001\000\000\000\000\000\000\000Q\345td\006\000\000\000\000\000\000\000\000\000\000\000\000\000\000\000\000\000\000\000\000\000\000\000\000\000\000\000\000\000\000\000\000\000\000\000\000\000\000\000\000\000\000\000\000\000\000\000\000\000\000\000\004\000\000\000\004\000\000\0008\002\000\000\000\000\000\0008\002\000\000\000\000\000\0008\002\000\000\000\000\000\0004\n\000\000\000\000\000\0004\n\000\000\000\000\000\000\004\000\000\000\000\000\000\000\007\000\000\000 \n\000\000 \000\000\000AMDGPU\000\000\203\256amdhsa.kernels\222\336\000\022\245.args\334\000\020\204\256.address_space\246global\247.offset\000\245.size\b\253.value_kind\255global_buffer\204\256.address_space\246global\247.offset\b\245.size\b\253.value_kind\255global_buffer\203\247.offset\020\245.size\004\253.value_kind\250by_value\203\247.offset\030\245.size\004\253.value_kind\264hidden_block_count_x\203\247.offset\034\245.size\004\253.value_kind\264hidden_block_count_y\203\247.offset \245.size\004\253.value_kind\264hidden_block_count_z\203\247.offset$\245.size\002\253.value_kind\263hidden_group_size_x\203\247.offset&\245.size\002\253.value_kind\263hidden_group_size_y\203\247.offset(\245.size\002\253.value_kind\263hidden_group_size_z\203\247.offset*\245.size\002\253.value_kind\262hidden_remainder_x\203\247.offset,\245.size\002\253.value_kind\262hidden_remainder_y\203\247.offset.\245.size\002\253.value_kind\262hidden_remainder_z\203\247.offset@\245.size\b\253.value_kind\266hidden_global_offset_x\203\247.offsetH\245.size\b\253.value_kind\266hidden_global_offset_y\203\247.offsetP\245.size\b\253.value_kind\266hidden_global_offset_z\203\247.offsetX\245.size\002\253.value_kind\260hidden_grid_dims\271.group_segment_fixed_size\000\266.kernarg_segment_align\b\265.kernarg_segment_size\315\001\030\251.language\250OpenCL C\261.language_version\222\002\000\270.max_flat_workgroup_size\315\004\000\245.name\331(_Z8test_bfiPKjP15HIP_vector_typeIiLj2EEi\273.private_segment_fixed_size\000\253.sgpr_count\t\261.sgpr_spill_count\000\247.symbol\331+_Z8test_bfiPKjP15HIP_vector_typeIiLj2EEi.kd\270.uniform_work_group_size\001\263.uses_dynamic_stack\302\253.vgpr_count\t\261.vgpr_spill_count\000\257.wavefront_size \271.workgroup_processor_mode\001\336\000\022\245.args\334\000\020\204\256.address_space\246global\247.offset\000\245.size\b\253.value_kind\255global_buffer\204\256.address_space\246global\247.offset\b\245.size\b\253.value_kind\255global_buffer\203\247.offset\020\245.size\004\253.value_kind\250by_value\203\247.offset\030\245.size\004\253.value_kind\264hidden_block_count_x\203\247.offset\034\245.size\004\253.value_kind\264hidden_block_count_y\203\247.offset \245.size\004\253.value_kind\264hidden_block_count_z\203\247.offset$\245.size\002\253.value_kind\263hidden_group_size_x\203\247.offset&\245.size\002\253.value_kind\263hidden_group_size_y\203\247.offset(\245.size\002\253.value_kind\263hidden_group_size_z\203\247.offset*\245.size\002\253.value_kind\262hidden_remainder_x\203\247.offset,\245.size\002\253.value_kind\262hidden_remainder_y\203\247.offset.\245.size\002\253.value_kind\262hidden_remainder_z\203\247.offset@\245.size\b\253.value_kind\266hidden_global_offset_x\203\247.offsetH\245.size\b\253.value_kind\266hidden_global_offset_y\203\247.offsetP\245.size\b\253.value_kind\266hidden_global_offset_z\203\247.offsetX\245.size\002\253.value_kind\260hidden_grid_dims\271.group_segment_fixed_size\000\266.kernarg_segment_align\b\265.kernarg_segment_size\315\001\030\251.language\250OpenCL C\261.language_version\222\002\000\270.max_flat_workgroup_size\315\004\000\245.name\331._Z13test_baselinePKjP15HIP_vector_typeIiLj2EEi\273.private_segment_fixed_size\000\253.sgpr_count\t\261.sgpr_spill_count\000\247.symbol\3311_Z13test_baselinePKjP15HIP_vector_typeIiLj2EEi.kd\270.uniform_work_group_size\001\263.uses_dynamic_stack\302\253.vgpr_count\t\261.vgpr_spill_count\000\257.wavefront_size \271.workgroup_processor_mode\001\255amdhsa.target\272amdgcn-amd-amdhsa--gfx1030\256amdhsa.version\222\001\002\000\000\000\000\000\000\000\000\000\000\000\000\000\000\000\000\000\000\000\000\000\000\000\000\000\000\000\000\001\000\000\000\022\003\007\000\000\037\000\000\000\000\000\000\034\001\000\000\000\000\000\000*\000\000\000\021\003\006\000@\016\000\000\000\000\000\000@\000\000\000\000\000\000\000V\000\000\000\022\003\007\000\000!\000\000\000\000\000\000\024\001\000\000\000\000\000\000\205\000\000\000\021\003\006\000\200\016\000\000\000\000\000\000@\000\000\000\000\000\000\000\267\000\000\000\021\000\n\000pC\000\000\000\000\000\000\001\000\000\000\000\000\000\000\001\000\000\000\001\000\000\000\001\000\000\000\032\000\000\000\214\000\b\200I\001\000 \001\000\000\000\202Q\301N\036\314\323\217 \263\341\232\3740{\035\351?\241\016\006\000\000\000\006\000\000\000\002\000\000\000\003\000\000\000\004\000\000\000\005\000\000\000\000\000\000\000\001\000\000\000\000\000\000\000\000\000\000\000\000\000\000\000\000\000\000\000\000\000\000\000\000\000\000\000\000_Z8test_bfiPKjP15HIP_vector_typeIiLj2EEi\000_Z8test_bfiPKjP15HIP_vector_typeIiLj2EEi.kd\000_Z13test_baselinePKjP15HIP_vector_typeIiLj2EEi\000_Z13test_baselinePKjP15HIP_vector_typeIiLj2EEi.kd\000__hip_cuid_349aa7714f3c5371\000\000\000\000\000\000\000\000\000\000\000\000\000\000\030\001\000\000\000\000\000\000\300\020\000\000\000\000\000\000\000\000\000\000\000\000\000\000\000\000\000\000\000\000\000\000\000\000\000\000\000\000\000\000\001\000\257\340\214\000\000\000\t\004\000\000\000\000\000\000\000\000\000\000\000\000\000\000\030\001\000\000\000\000\000\000\200\022\000\000\000\000\000\000\000\000\000\000\000\000\000\000\000\000\000\000\000\000\000\000\000\000\000\000\000\000\000\000\001\000\257\340\214\000\000\000\t\004\000\000\000\000\000\000\000\000\000\000\000\000\000\000\000\000\000\000\000\000\000\000\000\000\000\000\000\000\000\000\000\000\000\000\000\000\000\000\000\000\000\000\000\000\000\000\000\000\000\000\000\000\000\000\000\000\000\000\000\000\000\000\000\000\000\000\000\000\000\000\001\000\241\277\002\000\000\364$\000\000\372B\000\000\364\020\000\000\372\177\300\214\277\000\377\000\207\377\377\000\000\000}v\325\006\000\000\004~\003\200\276~\000\224\324\001\000\002\0008\000\210\277\002\000\b\364\000\000\000\372\237\000\0020\002\000\377\326\202\000\002\000\000\000\377\326\203\000\002\000\177\300\214\277\002j\017\327\000\004\002\000\001\006\006P\000j\017\327\002\000\002\000\003\002\002P\000\2000\334\002\000}\002\377\003\200\276\004\006\b\f\377\003\201\276\374\372\370\364p?\214\277\204\004\006,\377\004\b6\007\007\007\007\203\004\n,\207\004\004,\377\006\0066\007\007\007\007\006\000D\327\000\376\021\004\000\001\002\003\377\n\n6\001\001\001\001\377\004\0046\001\001\001\001\004\000D\327\001\376\021\004\000\377\376\375\007\000D\327\000\376\r\004\000\001\002\003\003\000D\327\001\376\r\004\000\377\376\375\005\000D\327\377\376\025\004\000\377\000\000\b\000D\327\377\376\t\004\000\377\000\000\002\000J\325\005\t\032\004\003\000J\325\b\007\036\004\000\200t\334\000\002}\000\000\000\201\277\000\000\200\277\000\000\200\277\000\000\200\277\000\000\200\277\000\000\200\277\000\000\200\277\000\000\200\277\000\000\200\277\000\000\200\277\000\000\200\277\000\000\200\277\000\000\200\277\000\000\200\277\000\000\200\277\000\000\200\277\000\000\200\277\000\000\200\277\000\000\200\277\000\000\200\277\000\000\200\277\000\000\200\277\000\000\200\277\000\000\200\277\000\000\200\277\000\000\200\277\000\000\200\277\000\000\200\277\000\000\200\277\000\000\200\277\000\000\200\277\000\000\200\277\000\000\200\277\000\000\200\277\000\000\200\277\000\000\200\277\000\000\200\277\000\000\200\277\000\000\200\277\000\000\200\277\000\000\200\277\000\000\200\277\000\000\200\277\000\000\200\277\000\000\200\277\000\000\200\277\000\000\200\277\000\000\200\277\000\000\200\277\000\000\200\277\000\000\200\277\000\000\200\277\000\000\200\277\000\000\200\277\000\000\200\277\000\000\200\277\000\000\200\277\000\000\200\277\001\000\241\277\002\000\000\364$\000\000\372B\000\000\364\020\000\000\372\177\300\214\277\000\377\000\207\377\377\000\000\000}v\325\006\000\000\004~\003\200\276~\000\224\324\001\000\002\0006\000\210\277\002\000\b\364\000\000\000\372\237\000\0020\377\003\204\276\004\004\004\004\002\000\377\326\202\000\002\000\000\000\377\326\203\000\002\000\177\300\214\277\002j\017\327\000\004\002\000\001\006\006P\377\003\200\276\004\006\b\f\377\003\201\276\374\372\370\364\000j\017\327\002\000\002\000\000\2000\334\002\000}\002\003\002\002Pp?\214\277\204\004\006,\377\004\b6\007\007\007\007\201\004\n,\205\004\004,\377\006\0066\007\007\007\007\006\000D\327\000\376\021\004\000\001\002\003\004\000D\327\001\376\021\004\000\377\376\375\005\000q\327\005\t\374\003\000\001\002\003\007\000q\327\002\t\374\003\000\001\002\003\b\000D\327\000\376\r\004\000\001\002\003\003\000D\327\001\376\r\004\000\377\376\375\002\000D\327\004\r\026\004\003\000D\327\003\021\036\004\000\200t\334\000\002}\000\000\000\201\277\000\000\237\277\000\000\237\277\000\000\237\277\000\000\237\277\000\000\237\277\000\000\237\277\000\000\237\277\000\000\237\277\000\000\237\277\000\000\237\277\000\000\237\277\000\000\237\277\000\000\237\277\000\000\237\277\000\000\237\277\000\000\237\277\000\000\237\277\000\000\237\277\000\000\237\277\000\000\237\277\000\000\237\277\000\000\237\277\000\000\237\277\000\000\237\277\000\000\237\277\000\000\237\277\000\000\237\277\000\000\237\277\000\000\237\277\000\000\237\277\000\000\237\277\000\000\237\277\000\000\237\277\000\000\237\277\000\000\237\277\000\000\237\277\000\000\237\277\000\000\237\277\000\000\237\277\000\000\237\277\000\000\237\277\000\000\237\277\000\000\237\277\000\000\237\277\000\000\237\277\000\000\237\277\000\000\237\277\000\000\237\277\000\000\237\277\000\000\237\277\000\000\237\277\000\000\237\277\000\000\237\277\000\000\237\277\000\000\237\277\000\000\237\277\000\000\237\277\000\000\237\277\000\000\237\277\006\000\000\000\000\000\000\000p\f\000\000\000\000\000\000\013\000\000\000\000\000\000\000\030\000\000\000\000\000\000\000\005\000\000\000\000\000\000\000h\r\000\000\000\000\000\000\n\000\000\000\000\000\000\000\323\000\000\000\000\000\000\000\365\376\377o\000\000\000\000\000\r\000\000\000\000\000\000\004\000\000\000\000\000\000\0000\r\000\000\000\000\000\000\000\000\000\000\000\000\000\000\000\000\000\000\000\000\000\000\000AMD clang version 20.0.0git (https://github.com/RadeonOpenCompute/llvm-project roc-7.1.1 25444 27682a16360e33e37c4f3cc6adf9a620733f8fe1)\000Linker: AMD LLD 20.0.0 (/longer_pathname_so_that_rpms_can_support_packaging_the_debug_info_for_all_os_profiles/src/llvm-project/llvm 27682a16360e33e37c4f3cc6adf9a620733f8fe1)\000\000\000\000\000\000\000\000\000\000\000\000\000\000\000\000\000\000\000\000\000\000\000\000\000\000\000\000\000\000\000\000\001\000\000\000\000\000\361\377\t\000\000\000\000\000\000\000\000\000\000\000\000\000\000\0003\000\000\000\000\000\361\377\000\000\000\000\000\000\000\000\000\000\000\000\000\000\000\000e\000\000\000\000\000\361\377\007\000\000\000\000\000\000\000\000\000\000\000\000\000\000\000\234\000\000\000\000\000\361\377\000\000\000\000\000\000\000\000\000\000\000\000\000\000\000\000\326\000\000\000\000\000\361\377\001\000\000\000\000\000\000\000\000\000\000\000\000\000\000\000\b\001\000\000\000\000\361\377\000\000\000\000\000\000\000\000\000\000\000\000\000\000\000\000C\001\000\000\000\000\361\377\000\000\000\000\000\000\000\000\000\000\000\000\000\000\000\000\200\001\000\000\000\000\361\377\000\000\000\000\000\000\000\000\000\000\000\000\000\000\000\000\267\001\000\000\000\000\361\377\000\000\000\000\000\000\000\000\000\000\000\000\000\000\000\000\362\001\000\000\000\000\361\377\t\000\000\000\000\000\000\000\000\000\000\000\000\000\000\000*\002\000\000\000\000\361\377\000\000\000\000\000\000\000\000\000\000\000\000\000\000\000\000b\002\000\000\000\000\361\377\007\000\000\000\000\000\000\000\000\000\000\000\000\000\000\000\237\002\000\000\000\000\361\377\000\000\000\000\000\000\000\000\000\000\000\000\000\000\000\000\337\002\000\000\000\000\361\377\001\000\000\000\000\000\000\000\000\000\000\000\000\000\000\000\027\003\000\000\000\000\361\377\000\000\000\000\000\000\000\000\000\000\000\000\000\000\000\000X\003\000\000\000\000\361\377\000\000\000\000\000\000\000\000\000\000\000\000\000\000\000\000\233\003\000\000\000\000\361\377\000\000\000\000\000\000\000\000\000\000\000\000\000\000\000\000\330\003\000\000\000\000\361\377\000\000\000\000\000\000\000\000\000\000\000\000\000\000\000\000\031\004\000\000\000\000\361\377\000\000\000\000\000\000\000\000\000\000\000\000\000\000\000\000-\004\000\000\000\000\361\377\000\000\000\000\000\000\000\000\000\000\000\000\000\000\000\000A\004\000\000\000\000\361\377\000\000\000\000\000\000\000\000\000\000\000\000\000\000\000\000'\005\000\000\000\002\b\000\0003\000\000\000\000\000\000\000\000\000\000\000\000\000\000U\004\000\000\022\003\007\000\000\037\000\000\000\000\000\000\034\001\000\000\000\000\000\000~\004\000\000\021\003\006\000@\016\000\000\000\000\000\000@\000\000\000\000\000\000\000\252\004\000\000\022\003\007\000\000!\000\000\000\000\000\000\024\001\000\000\000\000\000\000\331\004\000\000\021\003\006\000\200\016\000\000\000\000\000\000@\000\000\000\000\000\000\000\013\005\000\000\021\000\n\000pC\000\000\000\000\000\000\001\000\000\000\000\000\000\000\000.note\000.dynsym\000.gnu.hash\000.hash\000.dynstr\000.rodata\000.text\000.dynamic\000.relro_padding\000.bss\000.AMDGPU.csdata\000.AMDGPU.gpr_maximums\000.comment\000.symtab\000.shstrtab\000.strtab\000\000_Z8test_bfiPKjP15HIP_vector_typeIiLj2EEi.num_vgpr\000_Z8test_bfiPKjP15HIP_vector_typeIiLj2EEi.num_agpr\000_Z8test_bfiPKjP15HIP_vector_typeIiLj2EEi.numbered_sgpr\000_Z8test_bfiPKjP15HIP_vector_typeIiLj2EEi.private_seg_size\000_Z8test_bfiPKjP15HIP_vector_typeIiLj2EEi.uses_vcc\000_Z8test_bfiPKjP15HIP_vector_typeIiLj2EEi.uses_flat_scratch\000_Z8test_bfiPKjP15HIP_vector_typeIiLj2EEi.has_dyn_sized_stack\000_Z8test_bfiPKjP15HIP_vector_typeIiLj2EEi.has_recursion\000_Z8test_bfiPKjP15HIP_vector_typeIiLj2EEi.has_indirect_call\000_Z13test_baselinePKjP15HIP_vector_typeIiLj2EEi.num_vgpr\000_Z13test_baselinePKjP15HIP_vector_typeIiLj2EEi.num_agpr\000_Z13test_baselinePKjP15HIP_vector_typeIiLj2EEi.numbered_sgpr\000_Z13test_baselinePKjP15HIP_vector_typeIiLj2EEi.private_seg_size\000_Z13test_baselinePKjP15HIP_vector_typeIiLj2EEi.uses_vcc\000_Z13test_baselinePKjP15HIP_vector_typeIiLj2EEi.uses_flat_scratch\000_Z13test_baselinePKjP15HIP_vector_typeIiLj2EEi.has_dyn_sized_stack\000_Z13test_baselinePKjP15HIP_vector_typeIiLj2EEi.has_recursion\000_Z13test_baselinePKjP15HIP_vector_typeIiLj2EEi.has_indirect_call\000amdgpu.max_num_vgpr\000amdgpu.max_num_agpr\000amdgpu.max_num_sgpr\000_Z8test_bfiPKjP15HIP_vector_typeIiLj2EEi\000_Z8test_bfiPKjP15HIP_vector_typeIiLj2EEi.kd\000_Z13test_baselinePKjP15HIP_vector_typeIiLj2EEi\000_Z13test_baselinePKjP15HIP_vector_typeIiLj2EEi.kd\000__hip_cuid_349aa7714f3c5371\000_DYNAMIC\000\000\000\000\000\000\000\000\000\000\000\000\000\000\000\000\000\000\000\000\000\000\000\000\000\000\000\000\000\000\000\000\000\000\000\000\000\000\000\000\000\000\000\000\000\000\000\000\000\000\000\000\000\000\000\000\000\000\000\000\000\000\000\000\000\000\000\000\000\000\000\000\001\000\000\000\007\000\000\000\002\000\000\000\000\000\000\0008\002\000\000\000\000\000\0008\002\000\000\000\000\000\0004\n\000\000\000\000\000\000\000\000\000\000\000\000\000\000\004\000\000\000\000\000\000\000\000\000\000\000\000\000\000\000\007\000\000\000\013\000\000\000\002\000\000\000\000\000\000\000p\f\000\000\000\000\000\000p\f\000\000\000\000\000\000\220\000\000\000\000\000\000\000\005\000\000\000\001\000\000\000\b\000\000\000\000\000\000\000\030\000\000\000\000\000\000\000\017\000\000\000\366\377\377o\002\000\000\000\000\000\000\000\000\r\000\000\000\000\000\000\000\r\000\000\000\000\000\0000\000\000\000\000\000\000\000\002\000\000\000\000\000\000\000\b\000\000\000\000\000\000\000\000\000\000\000\000\000\000\000\031\000\000\000\005\000\000\000\002\000\000\000\000\000\000\0000\r\000\000\000\000\000\0000\r\000\000\000\000\000\0008\000\000\000\000\000\000\000\002\000\000\000\000\000\000\000\004\000\000\000\000\000\000\000\004\000\000\000\000\000\000\000\037\000\000\000\003\000\000\000\002\000\000\000\000\000\000\000h\r\000\000\000\000\000\000h\r\000\000\000\000\000\000\323\000\000\000\000\000\000\000\000\000\000\000\000\000\000\000\001\000\000\000\000\000\000\000\000\000\000\000\000\000\000\000'\000\000\000\001\000\000\000\002\000\000\000\000\000\000\000@\016\000\000\000\000\000\000@\016\000\000\000\000\000\000\200\000\000\000\000\000\000\000\000\000\000\000\000\000\000\000@\000\000\000\000\000\000\000\000\000\000\000\000\000\000\000/\000\000\000\001\000\000\000\006\000\000\000\000\000\000\000\000\037\000\000\000\000\000\000\000\017\000\000\000\000\000\000\000\004\000\000\000\000\000\000\000\000\000\000\000\000\000\000\000\001\000\000\000\000\000\000\000\000\000\000\000\000\000\0005\000\000\000\006\000\000\000\003\000\000\000\000\000\000\000\0003\000\000\000\000\000\000\000\023\000\000\000\000\000\000p\000\000\000\000\000\000\000\005\000\000\000\000\000\000\000\b\000\000\000\000\000\000\000\020\000\000\000\000\000\000\000>\000\000\000\b\000\000\000\003\000\000\000\000\000\000\000p3\000\000\000\000\000\000p\023\000\000\000\000\000\000\220\f\000\000\000\000\000\000\000\000\000\000\000\000\000\000\001\000\000\000\000\000\000\000\000\000\000\000\000\000\000\000M\000\000\000\b\000\000\000\003\000\000\000\000\000\000\000pC\000\000\000\000\000\000p\023\000\000\000\000\000\000\001\000\000\000\000\000\000\000\000\000\000\000\000\000\000\000\001\000\000\000\000\000\000\000\000\000\000\000\000\000\000\000R\000\000\000\001\000\000\000\000\000\000\000\000\000\000\000\000\000\000\000\000\000\000\000p\023\000\000\000\000\000\000\000\000\000\000\000\000\000\000\000\000\000\000\000\000\000\000\001\000\000\000\000\000\000\000\000\000\000\000\000\000\000\000a\000\000\000\001\000\000\000\000\000\000\000\000\000\000\000\000\000\000\000\000\000\000\000p\023\000\000\000\000\000\000\000\000\000\000\000\000\000\000\000\000\000\000\000\000\000\000\001\000\000\000\000\000\000\000\000\000\000\000\000\000\000\000v\000\000\000\001\000\000\0000\000\000\000\000\000\000\000\000\000\000\000\000\000\000\000p\023\000\000\000\000\000\0009\001\000\000\000\000\000\000\000\000\000\000\000\000\000\000\001\000\000\000\000\000\000\000\001\000\000\000\000\000\000\000\177\000\000\000\002\000\000\000\000\000\000\000\000\000\000\000\000\000\000\000\000\000\000\000\260\024\000\000\000\000\000\000\240\002\000\000\000\000\000\000\020\000\000\000\027\000\000\000\b\000\000\000\000\000\000\000\030\000\000\000\000\000\000\000\207\000\000\000\003\000\000\000\000\000\000\000\000\000\000\000\000\000\000\000\000\000\000\000P\027\000\000\000\000\000\000\231\000\000\000\000\000\000\000\000\000\000\000\000\000\000\000\001\000\000\000\000\000\000\000\000\000\000\000\000\000\000\000\221\000\000\000\003\000\000\000\000\000\000\000\000\000\000\000\000\000\000\000\000\000\000\000\351\027\000\000\000\000\000\0000\005\000\000\000\000\000\000\000\000\000\000\000\000\000\000\001\000\000\000\000\000\000\000\000\000\000\000\000\000\000\000\000\000\000\000\000\000\000\000\000\000\000\000\000\000\000\000\000\000\000\000\000\000\000\000\000\000\000\000\000\000\000\000\000\000\000\000\000\000\000\000\000\000\000\000\000\000\000\000\000\000\000\000\000\000\000\000\000\000\000\000\000\000\000\000\000\000\000\000\000\000\000\000\000\000\000\000\000\000\000\000\000\000\000\000\000\000\000\000\000\000\000\000\000\000\000\000\000\000\000\000\000\000\000\000\000\000\000\000\000\000\000\000\000\000\000\000\000\000\000\000\000\000\000\000\000\000\000\000\000\000\000\000\000\000\000\000\000\000\000\000\000\000\000\000\000\000\000\000\000\000\000\000\000\000\000\000\000\000\000\000\000\000\000\000\000\000\000\000\000\000\000\000\000\000\000\000\000\000\000\000\000\000\000\000\000\000\000\000\000\000\000\000\000\000\000\000\000\000\000\000\000\000\000\000\000\000\000\000\000\000\000\000\000\000\000\000\000\000\000\000\000\000\000\000\000\000\000\000\000\000\000\000\000\000\000\000\000\000\000\000\000\000\000\000\000\000\000\000\000\000\000\000\000\000\000\000\000\000\000\000\000\000\000\000\000\000\000\000\000\000\000\000\000\000\000\000\000\000\000\000\000\000\000\000\000\000\000\000\000\000\000\000\000\000\000\000\000\000\000\000\000\000\000\000\000\000\000\000\000\000\000\000\000\000\000\000\000\000\000\000\000\000\000\000\000\000\000\000\000\000\000\000\000\000\000\000\000\000\000\000\000\000\000\000\000\000\000\000\000\000\000\000\000\000\000\000\000\000\000\000\000\000\000\000\000\000\000\000\000\000\000\000\000\000\000\000\000\000\000\000\000\000\000\000\000\000\000\000\000\000\000\000\000\000\000\000\000\000\000\000\000\000\000\000\000\000\000\000\000\000\000\000\000\000\000\000\000\000\000\000\000\000\000\000\000\000\000\000\000\000\000\000\000\000\000\000\000\000\000\000\000\000\000\000\000\000\000\000\000\000\000\000\000\000\000\000\000\000\000\000\000\000\000\000\000\000\000\000\000\000\000\000\000\000\000\000\000\000\000\000\000\000\000\000\000\000\000\000\000\000\000\000\000\000\000\000\000\000\000\000\000\000\000\000\000\000\000\000\000\000\000\000\000\000\000\000\000\000\000\000\000\000\000\000\000\000\000\000\000\000\000\000\000\000\000\000\000\000\000\000\000\000\000\000\000\000\000\000\000\000\000\000\000\000\000\000\000\000\000\000\000\000\000\000\000\000\000\000\000\000\000\000\000\000\000\000\000\000\000\000\000\000\000\000\000\000\000\000\000\000\000\000\000\000\000\000\000\000\000\000\000\000\000\000\000\000\000\000\000\000\000\000\000\000\000\000\000\000\000\000\000\000\000\000\000\000\000\000\000\000\000\000\000\000\000\000\000\000\000\000\000\000\000\000\000\000\000\000\000\000\000\000\000\000\000\000\000\000\000\000\000\000\000\000\000\000\000\000\000\000\000\000\000\000\000\000\000\000\000\000\000\000\000\000\000\000\000\000\000\000\000\000\000\000\000\000\000\000\000\000\000\000\000\000\000\000\000\000\000\000\000\000\000\000\000\000\000\000\000\000\000\000\000\000\000\000\000\000\000\000\000\000\000\000\000\000\000\000\000\000\000\000\000\000\000\000\000\000\000\000\000\000\000\000\000\000\000\000\000\000\000\000\000\000\000\000\000\000\000\000\000\000\000\000\000\000\000\000\000\000\000\000\000\000\000\000\000\000\000\000\000\000\000\000\000\000\000\000\000\000\000\000\000\000\000\000\000\000\000\000\000\000\000\000\000\000\000\000\000\000\000\000\000\000\000\000\000\000\000\000\000\000\000\000\000\000\000\000\000\000\000\000\000\000\000\000\000\000\000\000\000\000\000\000\000\000\000\000\000\000\000\000\000\000\000\000\000\000\000\000\000\000\000\000\000\000\000\000\000\000\000\000\000\000\000\000\000\000\000\000\000\000\000\000\000\000\000\000\000\000\000\000\000\000\000\000\000\000\000\000\000\000\000\000\000\000\000\000\000\000\000\000\000\000\000\000\000\000\000\000\000\000\000\000\000\000\000\000\000\000\000\000\000\000\000\000\000\000\000\000\000\000\000\000\000\000\000\000\000\000\000\000\000\000\000\000\000\000\000\000\000\000\000\000\000\000\000\000\000\000\000\000\000\000\000\000\000\000\000\000\000\000\000\000\000\000\000\000\000\000\000\000\000\000\000\000\000\000\000\000\000\000\000\000\000\000\000\000\000\000\000\000\000\000\000\000\000\000\000\000\000\000\000\000\000\000\000\000\000\000\000\000\000\000\000\000\000\000\000\000\000\000\000\000\000\000\000\000\000\000\000\000\000\000\000\000\000\000\000\000\000\000\000\000\000\000\000\000\000\000\000\000\000\000\000\000\000\000\000\000\000\000\000\000\000\000\000\000\000\000\000\000\000\000\000\000\000\000\000\000\000\000\000\000\000\000\000\000\000\000\000\000\000\000\000\000\000\000\000\000\000\000\000\000\000\000\000\000\000\000\000\000\000\000\000\000\000\000\000\000\000\000\000\000\000\000\000\000\000\000\000\000\000\000\000\000\000\000\000\000\000\000\000\000\000\000\000\000\000\000\000\000\000\000\000\000\000\000\000\000\000\000\000\000\000\000\000\000\000\000\000\000\000\000\000\000\000\000\000\000\000\000\000\000\000\000\000\000\000\000\000\000\000\000\000\000\000\000\000\000\000\000\000\000\000\000\000\000\000\000\000\000\000\000\000\000\000\000\000\000\000\000\000\000\000\000\000\000\000\000\000\000\000\000\000\000\000\000\000\000\000\000\000\000\000\000\000\000\000\000\000\000\000\000\000\000\000\000\000\000\000\000\000\000\000\000\000\000\000\000\000\000\000\000\000\000\000\000\000\000\000\000\000\000\000\000\000\000\000\000\000\000\000\000\000\000\000\000\000\000\000\000\000\000\000\000\000\000\000\000\000\000\000\000\000\000\000\000\000\000\000\000\000\000\000\000\000\000\000\000\000\000\000\000\000\000\000\000\000\000\000\000\000\000\000\000\000\000\000\000\000\000\000\000\000\000\000\000\000\000\000\000\000\000\000\000\000\000\000\000\000\000\000\000\000\000\000\000\000\000\000\000\000\000\000\000\000\000\000\000\000\000\000\000\000\000\000\000\000\000\000\000\000\000\000\000\000\000\000\000\000\000\000\000\000\000\000\000\000\000\000\000\000\000\000\000\000\000\000\000\000\000\000\000\000\000\000\000\000\000\000\000\000\000\000\000\000\000\000\000\000\000\000\000\000\000\000\000\000\000\000\000\000\000\000\000\000\000\000\000\000\000\000\000\000\000\000\000\000\000\000\000\000\000\000\000\000\000\000\000\000\000\000\000\000\000\000\000\000\000\000\000\000\000\000\000\000\000\000\000\000\000\000\000\000\000\000\000\000\000\000\000\000\000\000\000\000\000\000\000\000\000\000\000\000\000\000\000\000\000\000\000\000\000\000\000\000\000\000\000\000\000\000\000\000\000\000\000\000\000\000\000\000\000\000\000\000\000\000\000\000\000\000\000\000\000\000\000\000\000\000\000\000\000\000\000\000\000\000\000\000\000\000\000\000\000\000\000\000\000\000\000\000\000\000\000\000\000\000\000\000\000\000\000\000\000\000\000\000\000\000\000\000\000\000\000\000\000\000\000\000\000\000\000\000\000\000\000\000\000\000\000\000\000\000\000\000\000\000\000\000\000\000\000\000\000\000\000\000\000\000\000\000\000\000\000\000\000\000\000\000\000\000\000\000\000\000\000\000\000\000\000\000\000\000\000\000\000\000\000\000\000\000\000\000\000\000\000\000\000\000\000\000\000\000\000\000\000\000\000\000\000\000\000\000\000\000\000\000\000\000\000\000\000\000\000\000\000\000\000\000\000\000\000\000\000\000\000\000\000\000\000\000\000\000\000\000\000\000\000\000\000\000\000\000\000\000\000\000\000\000\000\000\000\000\000\000\000\000\000\000\000\000\000\000\000\000\000\000\000\000\000\000\000\000\000\000\000\000\000\000\000\000\000\000\000\000\000\000\000\000\000\000\000\000\000\000\000\000\000\000\000\000\000\000\000\000\000\000\000\000\000\000\000\000\000\000\000\000\000\000\000\000\000\000\000\000\000\000\000\000\000\000\000\000\000\000\000\000\000\000\000\000\000\000\000\000\000\000\000\000\000\000\000\000\000\000\000\000\000\000\000\000\000\000\000\000\000\000\000\000\000\000\000\000\000\000\000\000\000\000\000\000\000\000\000\000\000\000\000\000\000\000\000\000\000\000\000\000\000\000\000\000\000\000\000\000\000\000\000\000\000\000\000\000\000\000\000\000\000\000\000\000\000\000\000\000\000\000\000\000\000\000\000\000\000\000\000\000\000\000\000\000\000\000\000\000\000\000\000\000\000\000\000\000\000\000\000\000\000\000\000\000\000\000\000\000\000\000\000\000\000\000\000\000\000\000\000\000\000\000\000\000\000\000\000\000\000\000\000\000\000\000\000\000\000\000\000\000\000\000\000\000\000\000\000\000\000\000\000\000\000\000\000\000\000\000\000\000\000\000\000\000\000\000\000\000\000\000\000\000\000\000\000\000\000\000\000\000\000\000\000\000\000\000\000\000\000\000\000\000\000\000\000\000\000\000\000\000\000\000\000\000\000\000\000\000\000\000\000\000\000\000\000\000\000\000\000\000\000\000\000\000\000\000\000\000\000\000\000\000\000\000\000\000\000\000\000\000\000\000\000\000\000\000\000\000\000\000\000\000\000\000\000\000\000\000\000\000\000\000\000\000\000\000\000\000\000\000\000\000\000\000\000\000\000\000\000\000\000\000\000\000\000\000\000\000\000\000\000\000\000\000\000\000\000\000\000\000\000\000\000\000\000\000\000\000\000\000\000\000\000\000\000\000\000\000\000\000\000\000\000\000\000\000\000\000\000\000\000\000\000\000\000\000\000\000\000\000\000\000\000\000\000\000\000\000\000\000\000\000\000\000\000\000\000\000\000\000\000\000\000\000\000\000\000\000\000\000\000\000\000\000\000\000\000\000\000\000\000\000\000\000\000\000\000\000\000\000\000\000\000\000\000\000\000\000\000\000\000\000\000\000\000\000\000\000\000\000\000\000\000\000\000\000\000\000\000\000\000\000\000\000\000\000\000\000\000\000\000\000\000\000\000\000\000\000\000\000\000\000\000\000\000\000\000\000\000\000\000\000\000\000\000\000\000\000\000\000\000\000\000\000\000\000\000\000\000\000\000\000\000\000\000\000\000\000\000\000\000\000\000\000\000\000\000\000\000\000\000\000\000\000\000\000\000\000\000\000\000\000\000\000\000\000\000\000\000\000\000\000\000\000\000\000\000\000\000\000\000\000\000\000\000\000\000\000\000\000\000\000\000\000\000\000\000\000\000\000\000\000\000\000\000\000\000\000\000\000\000\000\000\000\000\000\000\000\000\000\000\000\000\000\000\000\000\000\000\000\000\000\000\000\000\000\000\000\000\000\000\000\000\000\000\000\000\000\000\000\000\000\000\000\000\000\000\000\000\000\000\000\000\000\000\000\000\000\000\000\000\000\000\000\000\000\000\000\000\000\000\000\000\000\000\000\000\000\000\000\000\000\000\000\000\000\000\000\000\000\000\000\000\000\000\000\000\000\000\000\000\000\000\000\000\000\000\000\000\000\000\000\000\000\000\000\000\000\000\000\000\000\000\000\000\000\000\000\000\000\000\000\000\000\000\000\000\000\000\000\000\000\000\000\000\000\000\000\000\000\000\000\000\000\000\000\000\000\000\000\000\000\000\000\000\000\000\000\000\000\000\000\000\000\000\000\000\000\000\000\000\000\000\000\000\000\000\000\000\000\000\000\000\000\000\000\000\000\000\000\000\000\000\000\000\000\000\000\000\000\000\000\000\000\000\000\000\000\000\000\000\000\000\000\000\000\000\000\000\000\000\000\000\000\000\000\000\000\000\000\000\000\000\000\000\000\000\000\000\000\000\000\000\000\000\000\000\000\000\000\000\000\000\000\000\000\000\000\000\000\000\000\000\000\000\000\000\000\000\000\000\000\000\000\000\000\000\000\000\000\000\000\000\000\000\000\000\000\000\000\000\000\000\000\000\000\000\000\000\000\000\000\000\000\000\000\000\000\000\000\000\000\000\000\000\000\000\000\000\000\000\000\000\000\000\000\000\000\000\000\000\000\000\000\000\000\000\000\000\000\000\000\000\000\000\000\000\000\000\000\000\000\000\000\000\000\000\000\000\000\000\000\000\000\000\000\000\000\000\000\000\000\000\000\000\000\000\000\000\000\000\000\000\000\000\000\000\000\000\000\000\000\000\000\000\000\000\000\000\000\000\000\000\000\000\000\000\000\000\000\000\000\000\000\000\000\000\000\000\000\000\000\000\000\000\000\000\000\000\000\000\000\000\000\000\000\000\000\000\000\000\000\000\000\000\000\000\000\000\000\000\000\000\000\000\000\000\000\000\000\000\000\000\000\000\000\000\000\000\000\000\000\000\000\000\000\000\000\000\000\000\000\000\000\000\000\000\000\000\000\000\000\000\000\000\000\000\000\000\000\000\000\000\000\000\000\000\000\000\000\000\000\000\000\000\000\000\000\000\000\000\000\000\000\000\000\000\000\000\000\000\000\000\000\000\000\000\000\000\000\000\000\000\000\000\000\000\000\000\000\000\000\000\000\000\000\000\000\000\000\000\000\000\000\000\000\000\000\000\000\000\000\000\000\000\000\000\000\000\000\000\000\000\000\000\000\000\000\000\000\000\000\000\000\000\000\000\000\000\000\000\000\000\000\000\000\000\000\000\000\000\000\000\000\000\000\000\000\000\000\000\000\000\000\000\000\000\000\000\000\000\000\000\000\000\000\000\000\000\000\000\000\000\000\000\000\000\000\000\000\000\000\000\000\000\000\000\000\000\000\000\000\000\000\000\000\000\000\000\000\000\000\000\000\000\000\000\000\000\000\000\000\000\000\000\000\000\000\000\000\000\000\000\000\000\000\000\000\000\000\000\000\000\000\000\000\000\000\000\000\000\000\000\000\000\000\000\000\000\000\000\000\000\000\000\000\000\000\000\000\000\000\000\000\000\000\000\000\000\000\000\000\000\000\000\000\000\000\000\000\000\000\000\000\000\000\000\000\000\000\000\000\000\000\000\000\000\000\000\000\000\000\000\000\000\000\000\000\000\000\000\000\000\000\000\000\000\000\000\000\000\000\000\000\000\000\000\000\000\000\000\000\000\000\000\000\000\000\000\000\000\000\000\000\000\000\000\000\000\000\000\000\000\000\000\000\000\000\000\000\000\000\000\000\000\000\000\000\000\000\000\000\000\000\000\000\000\000\000\000\000\000\000\000\000\000\000\000\000\000\000\000\000\000\000\000\000\000\000\000\000\000\000\000\000\000\000\000\000\000\000\000\000\000\000\000\000\000\000\000\000\000\000\000\000\000\000\000\000\000\000\000\000\000\000\000\000\000\000\000\000\000\000\000\000\000\000\000\000\000\000\000\000\000\000\000\000\000\000\000\000\000\000\000\000\000\000\000\000\000\000\000\000\000\000\000\000\000\000\000\000\000\000\000\000\000\000\000\000\000\000\000\000\000\000\000\000\000\000\000\000\000\000\000\000\000\000\000\000\000\000\000\000\000\000\000\000\000\000\000\000\000\000\000\000\000\000\000\000\000\000\000\000\000\000\000\000\000\000\000\000\000\000\000\000\000\000\000\000\000\000\000\000\000\000\000\000\000\000\000\000\000\000\000\000\000\000\000\000\000\000\000\000\000\000\000\000\000\000\000\000\000\000\000\000\000\000\000\000\000\000\000\000\000\000\000\000\000\000\000\000\000\000\000\000\000\000\000\000\000\000\000\000\000\000\000\000\000\000\000\000\000\000\000\000\000\000\000\000\000\000\000\000\000\000\000\000\000\000\000\000\000\000\000\000\000\000\000\000\000\000\000\000\000\000\000\000\000\000\000\000\000\000\000\000\000\000\000\000\000\000\000\000\000\000\000\000\000\000\000\000\000\000\000\000\000\000\000\000\000\000\000\000\000\000\000\000\000\000\000\000\000\000\000\000\000\000\000\000\000\000\000\000\000\000\000\000\000\000\000\000\000\000\000\000\000\000\000\000\000\000\000\000\000\000\000\000\000\000\000\000\000\000\000\000\000\000\000\000\000\000\000\000\000\000\000\000\000\000\000\000\000\000\000\000\000\000\000\000\000\000\000\000\000\000\000\000\000\000\000\000\000\000\000\000\000\000\000\000\000\000\000\000\000\000\000\000\000\000\000\000\000\000\000\000\000\000\000\000\000\000\000\000\000\000\177ELF\002\001\001@\004\000\000\000\000\000\000\000\003\000\340\000\001\000\000\000\000\000\000\000\000\000\000\000@\000\000\000\000\000\000\0000\034\000\000\000\000\000\000/\005\000\000@\0008\000\t\000@\000\021\000\017\000\006\000\000\000\004\000\000\000@\000\000\000\000\000\000\000@\000\000\000\000\000\000\000@\000\000\000\000\000\000\000\370\001\000\000\000\000\000\000\370\001\000\000\000\000\000\000\b\000\000\000\000\000\000\000\001\000\000\000\004\000\000\000\000\000\000\000\000\000\000\000\000\000\000\000\000\000\000\000\000\000\000\000\000\000\000\000\300\016\000\000\000\000\000\000\300\016\000\000\000\000\000\000\000\020\000\000\000\000\000\000\001\000\000\000\005\000\000\000\000\017\000\000\000\000\000\000\000\037\000\000\000\000\000\000\000\037\000\000\000\000\000\000\f\003\000\000\000\000\000\000\f\003\000\000\000\000\000\000\000\020\000\000\000\000\000\000\001\000\000\000\006\000\000\000\020\022\000\000\000\000\000\000\0202\000\000\000\000\000\000\0202\000\000\000\000\000\000p\000\000\000\000\000\000\000\360\r\000\000\000\000\000\000\000\020\000\000\000\000\000\000\001\000\000\000\006\000\000\000\200\022\000\000\000\000\000\000\200B\000\000\000\000\000\000\200B\000\000\000\000\000\000\000\000\000\000\000\000\000\000\001\000\000\000\000\000\000\000\000\020\000\000\000\000\000\000\002\000\000\000\006\000\000\000\020\022\000\000\000\000\000\000\0202\000\000\000\000\000\000\0202\000\000\000\000\000\000p\000\000\000\000\000\000\000p\000\000\000\000\000\000\000\b\000\000\000\000\000\000\000R\345td\004\000\000\000\020\022\000\000\000\000\000\000\0202\000\000\000\000\000\000\0202\000\000\000\000\000\000p\000\000\000\000\000\000\000\360\r\000\000\000\000\000\000\001\000\000\000\000\000\000\000Q\345td\006\000\000\000\000\000\000\000\000\000\000\000\000\000\000\000\000\000\000\000\000\000\000\000\000\000\000\000\000\000\000\000\000\000\000\000\000\000\000\000\000\000\000\000\000\000\000\000\000\000\000\000\004\000\000\000\004\000\000\0008\002\000\000\000\000\000\0008\002\000\000\000\000\000\0008\002\000\000\000\000\000\000\000\n\000\000\000\000\000\000\000\n\000\000\000\000\000\000\004\000\000\000\000\000\000\000\007\000\000\000\351\t\000\000 \000\000\000AMDGPU\000\000\203\256amdhsa.kernels\222\336\000\021\245.args\334\000\020\204\256.address_space\246global\247.offset\000\245.size\b\253.value_kind\255global_buffer\204\256.address_space\246global\247.offset\b\245.size\b\253.value_kind\255global_buffer\203\247.offset\020\245.size\004\253.value_kind\250by_value\203\247.offset\030\245.size\004\253.value_kind\264hidden_block_count_x\203\247.offset\034\245.size\004\253.value_kind\264hidden_block_count_y\203\247.offset \245.size\004\253.value_kind\264hidden_block_count_z\203\247.offset$\245.size\002\253.value_kind\263hidden_group_size_x\203\247.offset&\245.size\002\253.value_kind\263hidden_group_size_y\203\247.offset(\245.size\002\253.value_kind\263hidden_group_size_z\203\247.offset*\245.size\002\253.value_kind\262hidden_remainder_x\203\247.offset,\245.size\002\253.value_kind\262hidden_remainder_y\203\247.offset.\245.size\002\253.value_kind\262hidden_remainder_z\203\247.offset@\245.size\b\253.value_kind\266hidden_global_offset_x\203\247.offsetH\245.size\b\253.value_kind\266hidden_global_offset_y\203\247.offsetP\245.size\b\253.value_kind\266hidden_global_offset_z\203\247.offsetX\245.size\002\253.value_kind\260hidden_grid_dims\271.group_segment_fixed_size\000\266.kernarg_segment_align\b\265.kernarg_segment_size\315\001\030\251.language\250OpenCL C\261.language_version\222\002\000\270.max_flat_workgroup_size\315\004\000\245.name\331(_Z8test_bfiPKjP15HIP_vector_typeIiLj2EEi\273.private_segment_fixed_size\000\253.sgpr_count\013\261.sgpr_spill_count\000\247.symbol\331+_Z8test_bfiPKjP15HIP_vector_typeIiLj2EEi.kd\270.uniform_work_group_size\001\263.uses_dynamic_stack\302\253.vgpr_count\n\261.vgpr_spill_count\000\257.wavefront_size@\336\000\021\245.args\334\000\020\204\256.address_space\246global\247.offset\000\245.size\b\253.value_kind\255global_buffer\204\256.address_space\246global\247.offset\b\245.size\b\253.value_kind\255global_buffer\203\247.offset\020\245.size\004\253.value_kind\250by_value\203\247.offset\030\245.size\004\253.value_kind\264hidden_block_count_x\203\247.offset\034\245.size\004\253.value_kind\264hidden_block_count_y\203\247.offset \245.size\004\253.value_kind\264hidden_block_count_z\203\247.offset$\245.size\002\253.value_kind\263hidden_group_size_x\203\247.offset&\245.size\002\253.value_kind\263hidden_group_size_y\203\247.offset(\245.size\002\253.value_kind\263hidden_group_size_z\203\247.offset*\245.size\002\253.value_kind\262hidden_remainder_x\203\247.offset,\245.size\002\253.value_kind\262hidden_remainder_y\203\247.offset.\245.size\002\253.value_kind\262hidden_remainder_z\203\247.offset@\245.size\b\253.value_kind\266hidden_global_offset_x\203\247.offsetH\245.size\b\253.value_kind\266hidden_global_offset_y\203\247.offsetP\245.size\b\253.value_kind\266hidden_global_offset_z\203\247.offsetX\245.size\002\253.value_kind\260hidden_grid_dims\271.group_segment_fixed_size\000\266.kernarg_segment_align\b\265.kernarg_segment_size\315\001\030\251.language\250OpenCL C\261.language_version\222\002\000\270.max_flat_workgroup_size\315\004\000\245.name\331._Z13test_baselinePKjP15HIP_vector_typeIiLj2EEi\273.private_segment_fixed_size\000\253.sgpr_count\013\261.sgpr_spill_count\000\247.symbol\3311_Z13test_baselinePKjP15HIP_vector_typeIiLj2EEi.kd\270.uniform_work_group_size\001\263.uses_dynamic_stack\302\253.vgpr_count\n\261.vgpr_spill_count\000\257.wavefront_size@\255amdhsa.target\271amdgcn-amd-amdhsa--gfx906\256amdhsa.version\222\001\002\000\000\000\000\000\000\000\000\000\000\000\000\000\000\000\000\000\000\000\000\000\000\000\000\000\000\000\001\000\000\000\022\003\007\000\000\037\000\000\000\000\000\000\024\001\000\000\000\000\000\000*\000\000\000\021\003\006\000@\016\000\000\000\000\000\000@\000\000\000\000\000\000\000V\000\000\000\022\003\007\000\000!\000\000\000\000\000\000\f\001\000\000\000\000\000\000\205\000\000\000\021\003\006\000\200\016\000\000\000\000\000\000@\000\000\000\000\000\000\000\267\000\000\000\021\000\n\000\200B\000\000\000\000\000\000\001\000\000\000\000\000\000\000\001\000\000\000\001\000\000\000\001\000\000\000\032\000\000\000\214\000\b\200I\001\000 \001\000\000\000\202Q\301N\036\314\323\217 \263\341\232\3740{\035\351?\241\016\006\000\000\000\006\000\000\000\002\000\000\000\003\000\000\000\004\000\000\000\005\000\000\000\000\000\000\000\001\000\000\000\000\000\000\000\000\000\000\000\000\000\000\000\000\000\000\000\000\000\000\000\000\000\000\000\000_Z8test_bfiPKjP15HIP_vector_typeIiLj2EEi\000_Z8test_bfiPKjP15HIP_vector_typeIiLj2EEi.kd\000_Z13test_baselinePKjP15HIP_vector_typeIiLj2EEi\000_Z13test_baselinePKjP15HIP_vector_typeIiLj2EEi.kd\000__hip_cuid_349aa7714f3c5371\000\000\000\000\000\000\000\000\000\000\000\000\000\000\000\000\000\000\000\000\000\000\000\000\000\000\000\000\000\000\000\000\000\000\000\000\000\000\000\000\000\000\000\000\000\000\000\000\000\000\000\000\000\000\000\000\000\000\000\000\000\000\000\000\000\000\000\000\000\000\030\001\000\000\000\000\000\000\300\020\000\000\000\000\000\000\000\000\000\000\000\000\000\000\000\000\000\000\000\000\000\000\000\000\000\000\000\000\000\000B\000\257\000\214\000\000\000\t\000\000\000\000\000\000\000\000\000\000\000\000\000\000\000\030\001\000\000\000\000\000\000\200\022\000\000\000\000\000\000\000\000\000\000\000\000\000\000\000\000\000\000\000\000\000\000\000\000\000\000\000\000\000\000B\000\257\000\214\000\000\000\t\000\000\000\000\000\000\000\000\000\000\000\000\000\000\000\000\000\000\000\000\000\000\000\000\000\000\000\000\000\000\000\000\000\000\000\000\000\000\000\000\000\000\000\000\000\000\000\000\000\000\000\000\000\000\000\000\000\000\000\000\000\000\000\000\000\000\000\000\000\000\000\002\000\002\300$\000\000\000B\000\002\300\020\000\000\000\177\300\214\277\000\377\000\206\377\377\000\000\006\000\006\222\006\000\000h\001\000\210}j \200\2768\000\210\277\002\000\n\300\000\000\000\000\237\000\002\"\002\000\217\322\202\000\002\000\000\000\217\322\203\000\002\000\377\000\204\276\000\377\000\000\177\300\214\277\001\002\b~\000\004\0042\004\007\0068\000\200P\334\002\000\177\002\377\000\200\276\004\006\b\f\377\002\006~\000\001\002\003\003\002\n~\002\000\0002\377\000\201\276\374\372\370\364\377\002\b~\000\377\376\375\005\003\0028p\017\214\277\204\004\f \377\004\016&\007\007\007\007\203\004\020 \207\004\004 \377\f\f&\007\007\007\007\t\000\355\321\000\006\036\004\377\020\020&\001\001\001\001\377\004\004&\001\001\001\001\003\000\355\321\000\006\032\004\007\000\355\321\001\b\036\004\004\000\355\321\001\b\032\004\006\000\355\321\004\b \004\b\000\355\321\004\b\b\004\002\000\312\321\006\017&\004\003\000\312\321\b\t\016\004\000\200t\334\000\002\177\000\000\000\201\277\000\000\200\277\000\000\200\277\000\000\200\277\000\000\200\277\000\000\200\277\000\000\200\277\000\000\200\277\000\000\200\277\000\000\200\277\000\000\200\277\000\000\200\277\000\000\200\277\000\000\200\277\000\000\200\277\000\000\200\277\000\000\200\277\000\000\200\277\000\000\200\277\000\000\200\277\000\000\200\277\000\000\200\277\000\000\200\277\000\000\200\277\000\000\200\277\000\000\200\277\000\000\200\277\000\000\200\277\000\000\200\277\000\000\200\277\000\000\200\277\000\000\200\277\000\000\200\277\000\000\200\277\000\000\200\277\000\000\200\277\000\000\200\277\000\000\200\277\000\000\200\277\000\000\200\277\000\000\200\277\000\000\200\277\000\000\200\277\000\000\200\277\000\000\200\277\000\000\200\277\000\000\200\277\000\000\200\277\000\000\200\277\000\000\200\277\000\000\200\277\000\000\200\277\000\000\200\277\000\000\200\277\000\000\200\277\000\000\200\277\000\000\200\277\000\000\200\277\000\000\200\277\000\000\200\277\002\000\002\300$\000\000\000B\000\002\300\020\000\000\000\177\300\214\277\000\377\000\206\377\377\000\000\006\000\006\222\006\000\000h\001\000\210}j \200\2766\000\210\277\002\000\n\300\000\000\000\000\237\000\002\"\002\000\217\322\202\000\002\000\000\000\217\322\203\000\002\000\177\300\214\277\001\002\b~\000\004\0042\004\007\0068\000\200P\334\002\000\177\002\377\000\200\276\004\006\b\f\377\002\006~\000\001\002\003\377\000\201\276\374\372\370\364\377\002\b~\000\377\376\375\003\002\n~\002\000\0002\005\003\0028p\017\214\277\204\004\f \377\004\016&\007\007\007\007\201\004\020 \205\004\004 \377\f\f&\007\007\007\007\377\020\020&\004\004\004\004\377\004\004&\004\004\004\004\t\000\355\321\000\006\036\004\007\000\355\321\001\b\036\004\003\000\355\321\000\006\032\004\004\000\355\321\001\b\032\004\377\020\f(\000\001\002\003\377\004\020(\000\001\002\003\002\000\355\321\007\023\032\004\003\000\355\321\004\007\"\004\000\200t\334\000\002\177\000\000\000\201\277\000\000\000\000\006\000\000\000\000\000\000\0008\f\000\000\000\000\000\000\013\000\000\000\000\000\000\000\030\000\000\000\000\000\000\000\005\000\000\000\000\000\000\0000\r\000\000\000\000\000\000\n\000\000\000\000\000\000\000\323\000\000\000\000\000\000\000\365\376\377o\000\000\000\000\310\f\000\000\000\000\000\000\004\000\000\000\000\000\000\000\370\f\000\000\000\000\000\000\000\000\000\000\000\000\000\000\000\000\000\000\000\000\000\000\000AMD clang version 20.0.0git (https://github.com/RadeonOpenCompute/llvm-project roc-7.1.1 25444 27682a16360e33e37c4f3cc6adf9a620733f8fe1)\000Linker: AMD LLD 20.0.0 (/longer_pathname_so_that_rpms_can_support_packaging_the_debug_info_for_all_os_profiles/src/llvm-project/llvm 27682a16360e33e37c4f3cc6adf9a620733f8fe1)\000\000\000\000\000\000\000\000\000\000\000\000\000\000\000\000\000\000\000\000\000\000\000\000\000\000\000\000\000\000\000\000\001\000\000\000\000\000\361\377\n\000\000\000\000\000\000\000\000\000\000\000\000\000\000\0003\000\000\000\000\000\361\377\000\000\000\000\000\000\000\000\000\000\000\000\000\000\000\000e\000\000\000\000\000\361\377\007\000\000\000\000\000\000\000\000\000\000\000\000\000\000\000\234\000\000\000\000\000\361\377\000\000\000\000\000\000\000\000\000\000\000\000\000\000\000\000\326\000\000\000\000\000\361\377\001\000\000\000\000\000\000\000\000\000\000\000\000\000\000\000\b\001\000\000\000\000\361\377\000\000\000\000\000\000\000\000\000\000\000\000\000\000\000\000C\001\000\000\000\000\361\377\000\000\000\000\000\000\000\000\000\000\000\000\000\000\000\000\200\001\000\000\000\000\361\377\000\000\000\000\000\000\000\000\000\000\000\000\000\000\000\000\267\001\000\000\000\000\361\377\000\000\000\000\000\000\000\000\000\000\000\000\000\000\000\000\362\001\000\000\000\000\361\377\n\000\000\000\000\000\000\000\000\000\000\000\000\000\000\000*\002\000\000\000\000\361\377\000\000\000\000\000\000\000\000\000\000\000\000\000\000\000\000b\002\000\000\000\000\361\377\007\000\000\000\000\000\000\000\000\000\000\000\000\000\000\000\237\002\000\000\000\000\361\377\000\000\000\000\000\000\000\000\000\000\000\000\000\000\000\000\337\002\000\000\000\000\361\377\001\000\000\000\000\000\000\000\000\000\000\000\000\000\000\000\027\003\000\000\000\000\361\377\000\000\000\000\000\000\000\000\000\000\000\000\000\000\000\000X\003\000\000\000\000\361\377\000\000\000\000\000\000\000\000\000\000\000\000\000\000\000\000\233\003\000\000\000\000\361\377\000\000\000\000\000\000\000\000\000\000\000\000\000\000\000\000\330\003\000\000\000\000\361\377\000\000\000\000\000\000\000\000\000\000\000\000\000\000\000\000\031\004\000\000\000\000\361\377\000\000\000\000\000\000\000\000\000\000\000\000\000\000\000\000-\004\000\000\000\000\361\377\000\000\000\000\000\000\000\000\000\000\000\000\000\000\000\000A\004\000\000\000\000\361\377\000\000\000\000\000\000\000\000\000\000\000\000\000\000\000\000'\005\000\000\000\002\b\000\0202\000\000\000\000\000\000\000\000\000\000\000\000\000\000U\004\000\000\022\003\007\000\000\037\000\000\000\000\000\000\024\001\000\000\000\000\000\000~\004\000\000\021\003\006\000@\016\000\000\000\000\000\000@\000\000\000\000\000\000\000\252\004\000\000\022\003\007\000\000!\000\000\000\000\000\000\f\001\000\000\000\000\000\000\331\004\000\000\021\003\006\000\200\016\000\000\000\000\000\000@\000\000\000\000\000\000\000\013\005\000\000\021\000\n\000\200B\000\000\000\000\000\000\001\000\000\000\000\000\000\000\000.note\000.dynsym\000.gnu.hash\000.hash\000.dynstr\000.rodata\000.text\000.dynamic\000.relro_padding\000.bss\000.AMDGPU.csdata\000.AMDGPU.gpr_maximums\000.comment\000.symtab\000.shstrtab\000.strtab\000\000_Z8test_bfiPKjP15HIP_vector_typeIiLj2EEi.num_vgpr\000_Z8test_bfiPKjP15HIP_vector_typeIiLj2EEi.num_agpr\000_Z8test_bfiPKjP15HIP_vector_typeIiLj2EEi.numbered_sgpr\000_Z8test_bfiPKjP15HIP_vector_typeIiLj2EEi.private_seg_size\000_Z8test_bfiPKjP15HIP_vector_typeIiLj2EEi.uses_vcc\000_Z8test_bfiPKjP15HIP_vector_typeIiLj2EEi.uses_flat_scratch\000_Z8test_bfiPKjP15HIP_vector_typeIiLj2EEi.has_dyn_sized_stack\000_Z8test_bfiPKjP15HIP_vector_typeIiLj2EEi.has_recursion\000_Z8test_bfiPKjP15HIP_vector_typeIiLj2EEi.has_indirect_call\000_Z13test_baselinePKjP15HIP_vector_typeIiLj2EEi.num_vgpr\000_Z13test_baselinePKjP15HIP_vector_typeIiLj2EEi.num_agpr\000_Z13test_baselinePKjP15HIP_vector_typeIiLj2EEi.numbered_sgpr\000_Z13test_baselinePKjP15HIP_vector_typeIiLj2EEi.private_seg_size\000_Z13test_baselinePKjP15HIP_vector_typeIiLj2EEi.uses_vcc\000_Z13test_baselinePKjP15HIP_vector_typeIiLj2EEi.uses_flat_scratch\000_Z13test_baselinePKjP15HIP_vector_typeIiLj2EEi.has_dyn_sized_stack\000_Z13test_baselinePKjP15HIP_vector_typeIiLj2EEi.has_recursion\000_Z13test_baselinePKjP15HIP_vector_typeIiLj2EEi.has_indirect_call\000amdgpu.max_num_vgpr\000amdgpu.max_num_agpr\000amdgpu.max_num_sgpr\000_Z8test_bfiPKjP15HIP_vector_typeIiLj2EEi\000_Z8test_bfiPKjP15HIP_vector_typeIiLj2EEi.kd\000_Z13test_baselinePKjP15HIP_vector_typeIiLj2EEi\000_Z13test_baselinePKjP15HIP_vector_typeIiLj2EEi.kd\000__hip_cuid_349aa7714f3c5371\000_DYNAMIC\000\000\000\000\000\000\000\000\000\000\000\000\000\000\000\000\000\000\000\000\000\000\000\000\000\000\000\000\000\000\000\000\000\000\000\000\000\000\000\000\000\000\000\000\000\000\000\000\000\000\000\000\000\000\000\000\000\000\000\000\000\000\000\000\000\000\000\000\000\000\000\000\001\000\000\000\007\000\000\000\002\000\000\000\000\000\000\0008\002\000\000\000\000\000\0008\002\000\000\000\000\000\000\000\n\000\000\000\000\000\000\000\000\000\000\000\000\000\000\004\000\000\000\000\000\000\000\000\000\000\000\000\000\000\000\007\000\000\000\013\000\000\000\002\000\000\000\000\000\000\0008\f\000\000\000\000\000\0008\f\000\000\000\000\000\000\220\000\000\000\000\000\000\000\005\000\000\000\001\000\000\000\b\000\000\000\000\000\000\000\030\000\000\000\000\000\000\000\017\000\000\000\366\377\377o\002\000\000\000\000\000\000\000\310\f\000\000\000\000\000\000\310\f\000\000\000\000\000\0000\000\000\000\000\000\000\000\002\000\000\000\000\000\000\000\b\000\000\000\000\000\000\000\000\000\000\000\000\000\000\000\031\000\000\000\005\000\000\000\002\000\000\000\000\000\000\000\370\f\000\000\000\000\000\000\370\f\000\000\000\000\000\0008\000\000\000\000\000\000\000\002\000\000\000\000\000\000\000\004\000\000\000\000\000\000\000\004\000\000\000\000\000\000\000\037\000\000\000\003\000\000\000\002\000\000\000\000\000\000\0000\r\000\000\000\000\000\0000\r\000\000\000\000\000\000\323\000\000\000\000\000\000\000\000\000\000\000\000\000\000\000\001\000\000\000\000\000\000\000\000\000\000\000\000\000\000\000'\000\000\000\001\000\000\000\002\000\000\000\000\000\000\000@\016\000\000\000\000\000\000@\016\000\000\000\000\000\000\200\000\000\000\000\000\000\000\000\000\000\000\000\000\000\000@\000\000\000\000\000\000\000\000\000\000\000\000\000\000\000/\000\000\000\001\000\000\000\006\000\000\000\000\000\000\000\000\037\000\000\000\000\000\000\000\017\000\000\000\000\000\000\f\003\000\000\000\000\000\000\000\000\000\000\000\000\000\000\000\001\000\000\000\000\000\000\000\000\000\000\000\000\000\0005\000\000\000\006\000\000\000\003\000\000\000\000\000\000\000\0202\000\000\000\000\000\000\020\022\000\000\000\000\000\000p\000\000\000\000\000\000\000\005\000\000\000\000\000\000\000\b\000\000\000\000\000\000\000\020\000\000\000\000\000\000\000>\000\000\000\b\000\000\000\003\000\000\000\000\000\000\000\2002\000\000\000\000\000\000\200\022\000\000\000\000\000\000\200\r\000\000\000\000\000\000\000\000\000\000\000\000\000\000\001\000\000\000\000\000\000\000\000\000\000\000\000\000\000\000M\000\000\000\b\000\000\000\003\000\000\000\000\000\000\000\200B\000\000\000\000\000\000\200\022\000\000\000\000\000\000\001\000\000\000\000\000\000\000\000\000\000\000\000\000\000\000\001\000\000\000\000\000\000\000\000\000\000\000\000\000\000\000R\000\000\000\001\000\000\000\000\000\000\000\000\000\000\000\000\000\000\000\000\000\000\000\200\022\000\000\000\000\000\000\000\000\000\000\000\000\000\000\000\000\000\000\000\000\000\000\001\000\000\000\000\000\000\000\000\000\000\000\000\000\000\000a\000\000\000\001\000\000\000\000\000\000\000\000\000\000\000\000\000\000\000\000\000\000\000\200\022\000\000\000\000\000\000\000\000\000\000\000\000\000\000\000\000\000\000\000\000\000\000\001\000\000\000\000\000\000\000\000\000\000\000\000\000\000\000v\000\000\000\001\000\000\0000\000\000\000\000\000\000\000\000\000\000\000\000\000\000\000\200\022\000\000\000\000\000\0009\001\000\000\000\000\000\000\000\000\000\000\000\000\000\000\001\000\000\000\000\000\000\000\001\000\000\000\000\000\000\000\177\000\000\000\002\000\000\000\000\000\000\000\000\000\000\000\000\000\000\000\000\000\000\000\300\023\000\000\000\000\000\000\240\002\000\000\000\000\000\000\020\000\000\000\027\000\000\000\b\000\000\000\000\000\000\000\030\000\000\000\000\000\000\000\207\000\000\000\003\000\000\000\000\000\000\000\000\000\000\000\000\000\000\000\000\000\000\000`\026\000\000\000\000\000\000\231\000\000\000\000\000\000\000\000\000\000\000\000\000\000\000\001\000\000\000\000\000\000\000\000\000\000\000\000\000\000\000\221\000\000\000\003\000\000\000\000\000\000\000\000\000\000\000\000\000\000\000\000\000\000\000\371\026\000\000\000\000\000\0000\005\000\000\000\000\000\000\000\000\000\000\000\000\000\000\001\000\000\000\000\000\000\000\000\000\000\000\000\000\000"
	.size	.L__unnamed_3, 24688

	.type	__hip_fatbin_wrapper,@object    # @__hip_fatbin_wrapper
	.section	.hipFatBinSegment,"a",@progbits
	.p2align	3, 0x0
__hip_fatbin_wrapper:
	.long	1212764230                      # 0x48495046
	.long	1                               # 0x1
	.quad	.L__unnamed_3
	.quad	0
	.size	__hip_fatbin_wrapper, 24

	.type	__hip_gpubin_handle_349aa7714f3c5371,@object # @__hip_gpubin_handle_349aa7714f3c5371
	.local	__hip_gpubin_handle_349aa7714f3c5371
	.comm	__hip_gpubin_handle_349aa7714f3c5371,8,8
	.section	.init_array,"aw",@init_array
	.p2align	3, 0x0
	.quad	__hip_module_ctor
	.type	__hip_cuid_349aa7714f3c5371,@object # @__hip_cuid_349aa7714f3c5371
	.bss
	.globl	__hip_cuid_349aa7714f3c5371
__hip_cuid_349aa7714f3c5371:
	.byte	0                               # 0x0
	.size	__hip_cuid_349aa7714f3c5371, 1

	.ident	"AMD clang version 20.0.0git (https://github.com/RadeonOpenCompute/llvm-project roc-7.1.1 25444 27682a16360e33e37c4f3cc6adf9a620733f8fe1)"
	.section	".note.GNU-stack","",@progbits
	.addrsig
	.addrsig_sym _Z23__device_stub__test_bfiPKjP15HIP_vector_typeIiLj2EEi
	.addrsig_sym _Z28__device_stub__test_baselinePKjP15HIP_vector_typeIiLj2EEi
	.addrsig_sym __hip_module_ctor
	.addrsig_sym __hip_module_dtor
	.addrsig_sym _Z8test_bfiPKjP15HIP_vector_typeIiLj2EEi
	.addrsig_sym _Z13test_baselinePKjP15HIP_vector_typeIiLj2EEi
	.addrsig_sym .L__unnamed_3
	.addrsig_sym __hip_fatbin_wrapper
	.addrsig_sym __hip_cuid_349aa7714f3c5371
